Sjasm Z80 Assembler v0.42c - www.xl2s.tk             [2024.05.24 - 14:43:28]

.\BTH.asm
Errors: 0

       1   00:0000                      	output "BTH.rom" 
       2   00:7FA1                      
       3   00:7FA1                      ;ROM ASCII16
       4   00:7FA1                      		defpage	0,0x4000, 0x4000
       5   00:7FA1                      		defpage	1,0x8000, 0x4000        
       6   00:7FA1                      		defpage	2..14 ;Here it is determined rom size        
       7   00:7FA1                              defpage	15,0xC000, 0x4000
       8   00:7FA1                      
       9   00:7FA1  (00:4000)           PageSize:	    equ	0x4000	        ; 16kB
      10   00:7FA1  (00:6000)           _bank1	equ	6000h
      11   00:7FA1  (00:7000)           _bank2	equ	7000h
      12   00:7FA1  32 00 70 32 FF 77   		DB 32h,0,70h,32h,0FFh,77h		; Para evitar seleccionar el tipo de ROM ASCII16 en OpenMSX
      13   00:7FA7  (00)                		page 0			
      14   00:4000                              org 4000h		
      15   00:4000                              dw  4241h,START,0,0,0,0,0,0
      15   00:4000  41 42 D1 4F 00 00 00 00 00 00 00 00 00 00 00 00 
      16   00:4010                      
      17   00:4010                      ;Llamadas a rutinas bios
      18   00:4010                          include "include\System_BIOSCalls.asm"
       1.  00:4010  (00:0069)           CLRSPR                  equ #0069
       2.  00:4010  (00:009F)           CHGET                   equ #009F    ; Se queda esperando que se pulse una tecla
       3.  00:4010  (00:00A2)           CHPUT                   equ #00A2    ; escribe el caracter ascii almacenado en a                         
       4.  00:4010  (00:005F)           CHGMOD                  equ #005F   ; Cambia el modo de screen pero previamente necesita que se le asigne el modo en el registro a
       5.  00:4010  (00:005C)           LDIRVM                  equ #005C   ;Tansfiere bloques de la RAM a la VRAM, es la más importante, necesita previamente asignar valor al registro bc con la longitud, dc con la dirección de inicio de la VRAM y hl con la dirección de inicio de la RAM:
       6.  00:4010  (00:013E)           RDVDP                   equ #013E    ; Lee el registro de estado del VDP
       7.  00:4010  (00:0047)           WRTVDP                  equ #0047   ; Escribe en los registros del VDP 
       8.  00:4010  (00:F3DB)           CLIKSW                  equ $F3DB ; Keyboard click sound
       9.  00:4010  (00:0141)           SNSMAT					equ #0141
      10.  00:4010  (00:FC9E)           JIFFY 					equ #FC9E
      11.  00:4010                      ;DISSCR                  equ #0041   ; Disable screen
      12.  00:4010                      ;ENASCR                  equ #0044   ; Enable screen
      13.  00:4010  (00:0072)           INIGRP                  equ #0072   ; Enable Screen 2
      14.  00:4010  (00:0138)           RSLREG                  equ #0138   ; Leemos el contenido del registro de seleccion de slots
      15.  00:4010  (00:0024)           ENASLT                  equ #0024   ; Switches indicated slot at indicated page on perpetually Input    : A - Slot ID, see RDSLT            H - Bit 6 and 7 must contain the page number (00-11)
      19   00:4010                      
      20   00:4010                      ;Constantes
      21   00:4010                          include "include\BTH_const.asm"
       1.  00:4010  (00:0009)           ENTITY_SIZE: EQU 9
       2.  00:4010                      
       3.  00:4010                      ; Sprite Collision
       4.  00:4010                      
       5.  00:4010  (00:000F)           PLAYER_COLLISION_OFFSET_X      equ 15
       6.  00:4010  (00:0010)           PLAYER_COLLISION_OFFSET_Y      equ 16
       7.  00:4010  (00:000E)           PLAYER_WIDTH                   equ 14
       8.  00:4010  (00:0010)           PLAYER_HEIGHT                  equ 16
       9.  00:4010                      
      10.  00:4010                      ; Offset Entity struct
      11.  00:4010  (00:0001)           ENEMY_X                         equ 1
      12.  00:4010  (00:0002)           ENEMY_Y                         equ 2
      13.  00:4010  (00:0003)           ENTITY_ENERGY                   equ 3
      14.  00:4010  (00:0004)           ENEMY_COLLISION_OFFSET_X        equ 4
      15.  00:4010  (00:0005)           ENEMY_COLLISION_OFFSET_Y        equ 5
      16.  00:4010  (00:0006)           ENEMY_COLLISION_WIDTH           equ 6
      17.  00:4010  (00:0007)           ENEMY_COLLISION_HEIGHT          equ 7
      18.  00:4010  (00:0008)           SPRITENUMBER_SPAT               equ 8
      19.  00:4010  (00:0009)           damage                          equ 9
      20.  00:4010                      
      21.  00:4010                      ; Notes Black Sabbath
      22.  00:4010  (00:0071)           STG2_TILE1_X    equ 113
      23.  00:4010  (00:006E)           STG2_TILE1_Y    equ 110
      24.  00:4010                      
      25.  00:4010  (00:0080)           STG2_TILE2_X    equ 128
      26.  00:4010                      
      27.  00:4010  (00:0080)           STG2_TILE3_X    equ 128
      28.  00:4010  (00:008E)           STG2_TILE3_Y    equ 142
      29.  00:4010                      
      30.  00:4010                      
      31.  00:4010                      ; VDP Const
      32.  00:4010                      ;IRST_LINE_DLG_BOX   equ 5C28H
      33.  00:4010                      ;SEC_LINE_DLG_BOX   equ 6028H
      34.  00:4010                      ;THIRD_LINE_DLG_BOX   equ 6428H
      35.  00:4010                      
      36.  00:4010                      ; Energy             lv1, lv2, lv3, lv4, lv5, lv6
      37.  00:4010  18 20 28 30 38 40   ANDY_MAX_ENERGY:  db  24, 32, 40, 48, 56, 64
      38.  00:4016                      
      39.  00:4016  (00:6100)           FIRST_LINE_DLG_BOX   equ 6100H
      40.  00:4016  (00:6500)           SEC_LINE_DLG_BOX   equ 6500H
      41.  00:4016  (00:6900)           THIRD_LINE_DLG_BOX   equ 6900H
      42.  00:4016                      
      43.  00:4016  (00:0001)           ROMMODE                 equ 1 ; 0 Dos Mode 1 Rom Mode
      44.  00:4016  (00:0007)           KB_RIGHT 				equ 7
      45.  00:4016  (00:0006)           KB_DOWN 				equ 6
      46.  00:4016  (00:0005)           KB_UP 					equ	5        
      47.  00:4016  (00:0004)           KB_LEFT 				equ	4
      48.  00:4016  (00:0003)           KB_DEL 					equ	3
      49.  00:4016  (00:0000)           KB_SPACE				equ	0
      50.  00:4016                      
      51.  00:4016  (00:0001)           MOV_SPEED				equ 1
      52.  00:4016  (00:0001)           MOV_SPEED_GHOST			equ 1
      53.  00:4016  (00:0003)           MOV_SPEED_SHOOT         equ 3
      54.  00:4016  (00:0030)           MAX_DISTANCE_SHOOT      equ 48
      55.  00:4016  (00:0005)           MAX_CHAR_STEPS          equ 5       ; #steps pattern change MAIN CHAR
      56.  00:4016  (00:0006)           MAX_CHAR_STEPS_STG2          equ 6
      57.  00:4016  (00:FFE8)           REG9SAV                 equ #FFE8
      58.  00:4016  (00:0098)           PORT_0                  equ 0x98
      59.  00:4016  (00:0099)           PORT_1                  equ 0x99
      60.  00:4016  (00:009A)           PORT_2                  equ 0x9a
      61.  00:4016  (00:009B)           PORT_3                  equ 0x9b
      62.  00:4016                      
      63.  00:4016  (00:F3E0)           RG15AV equ #F3E0 ; alamcena el valor del registro 1 de escritura del VDP, hay unas rutinas de la bios que guardan estas direcciones valores globals del sistema
      64.  00:4016  (00:F3E9)           FORCLR equ $F3E9 ; Foreground colour
      65.  00:4016                      
      66.  00:4016  (00:00C8)           MIKE_TOMB_STG1_X            equ 200
      67.  00:4016  (00:0029)           JOHN_TOMB_STG1_X            equ 41
      68.  00:4016  (00:0049)           GUS_TOMB_STG1_X             equ 73
      69.  00:4016  (00:0078)           GUS_TOMB_STG1_Y             equ 120
      70.  00:4016  (00:0069)           SKULL_TOMB_STG1_X             equ 105
      71.  00:4016  (00:005A)           SKULL_TOMB_STG1_Y1             equ 90
      72.  00:4016  (00:0064)           SKULL_TOMB_STG1_Y2             equ 100
      73.  00:4016                      
      74.  00:4016  (00:000C)           SPR_SHOOT_P1                equ 12  ; Offset de IX (SPRATT)
      75.  00:4016  (00:0018)           SPR_SHOOT_P1_PTRN           equ 18h
      76.  00:4016  (00:0010)           SPR_GHOST_STG1              equ 16  ; Offset de IX (SPRATT)
      77.  00:4016  (00:001C)           SPR_GHOST_STG1_PTRN_L1      equ 1Ch  ; Offset del Sprite Pattern Table
      78.  00:4016  (00:0024)           SPR_GHOST_STG1_PTRN_L2      equ 24h  ; Offset del Sprite Pattern Table
      79.  00:4016  (00:002C)           SPR_GHOST_STG1_PTRN_R1      equ 2Ch  ; Offset del Sprite Pattern Table
      80.  00:4016  (00:0034)           SPR_GHOST_STG1_PTRN_R2      equ 34h  ; Offset del Sprite Pattern Table
      81.  00:4016                      
      82.  00:4016  (00:0018)           SPR_GHOST_STG2              equ 24  ; Offset de IX (SPRATT)
      83.  00:4016  (00:003C)           SPR_GHOST_STG2_PTRN_L1      equ 3Ch  ; Offset del Sprite Pattern Table
      84.  00:4016  (00:0044)           SPR_GHOST_STG2_PTRN_L2      equ 44h  ; Offset del Sprite Pattern Table
      85.  00:4016  (00:004C)           SPR_GHOST_STG2_PTRN_R1      equ 4Ch  ; Offset del Sprite Pattern Table
      86.  00:4016  (00:0054)           SPR_GHOST_STG2_PTRN_R2      equ 54h  ; Offset del Sprite Pattern Table
      87.  00:4016                      
      22   00:4016                          include "include\BTH_strings.asm"
       1.  00:4016  1C 40 38 40 54 40   mike_tomb_strings: dw string01M, string02M, string03M
       2.  00:401C                      ; Caben 23 caracteres en cada línea
       3.  00:401C                      string01M: db 'MIKE:                      ',0
       3.  00:401C  4D 49 4B 45 3A 20 20 20 20 20 20 20 20 20 20 20 
       3.  00:402C  20 20 20 20 20 20 20 20 20 20 20 00 
       4.  00:4038                      string02M: db 'GUS FUE EL PRIMERO EN MORIR',0
       4.  00:4038  47 55 53 20 46 55 45 20 45 4C 20 50 52 49 4D 45 
       4.  00:4048  52 4F 20 45 4E 20 4D 4F 52 49 52 00 
       5.  00:4054  00                  string03M: db 0
       6.  00:4055                      
       7.  00:4055  5B 40 76 40 91 40   john_tomb_strings: dw string01J, string02J, string03J
       8.  00:405B                      ; Caben 23 caracteres en cada línea
       9.  00:405B                      string01J: db 'JOHN:                     ',0
       9.  00:405B  4A 4F 48 4E 3A 20 20 20 20 20 20 20 20 20 20 20 
       9.  00:406B  20 20 20 20 20 20 20 20 20 20 00 
      10.  00:4076                      string02J: db 'YO FUI EL SEGUNDO EN MORIR',0
      10.  00:4076  59 4F 20 46 55 49 20 45 4C 20 53 45 47 55 4E 44 
      10.  00:4086  4F 20 45 4E 20 4D 4F 52 49 52 00 
      11.  00:4091  00                  string03J: db 0
      12.  00:4092                      
      13.  00:4092  98 40 B5 40 D2 40   gus_tomb_strings: dw string01G, string02G, string03G
      14.  00:4098                      ; Caben 23 caracteres en cada línea
      15.  00:4098                      string01G: db 'GUS:                        ',0
      15.  00:4098  47 55 53 3A 20 20 20 20 20 20 20 20 20 20 20 20 
      15.  00:40A8  20 20 20 20 20 20 20 20 20 20 20 20 00 
      16.  00:40B5                      string02G: db 'MIKE FUE EL TERCERO EN MORIR',0
      16.  00:40B5  4D 49 4B 45 20 46 55 45 20 45 4C 20 54 45 52 43 
      16.  00:40C5  45 52 4F 20 45 4E 20 4D 4F 52 49 52 00 
      17.  00:40D2  00                  string03G: db  0
      18.  00:40D3                      
      19.  00:40D3  D9 40 F4 40 0F 41   stg1_skull_strings: dw string01Sk, string02Sk, string03Sk
      20.  00:40D9                      ; Caben 23 caracteres en cada línea
      21.  00:40D9                      string01Sk: db 'MURRAY:                   ',0
      21.  00:40D9  4D 55 52 52 41 59 3A 20 20 20 20 20 20 20 20 20 
      21.  00:40E9  20 20 20 20 20 20 20 20 20 20 00 
      22.  00:40F4                      string02Sk: db 'LA SANGRE TE DARA EL ORDEN',0
      22.  00:40F4  4C 41 20 53 41 4E 47 52 45 20 54 45 20 44 41 52 
      22.  00:4104  41 20 45 4C 20 4F 52 44 45 4E 00 
      23.  00:410F  00                  string03Sk: db 0
      24.  00:4110                      
      25.  00:4110  16 41 2F 41 48 41   stg1_puzzle_solved_strings: dw string01P, string02P, string03P
      26.  00:4116                      ; Caben 23 caracteres en cada línea
      27.  00:4116                      string01P: db 'ANDY:                   ',0
      27.  00:4116  41 4E 44 59 3A 20 20 20 20 20 20 20 20 20 20 20 
      27.  00:4126  20 20 20 20 20 20 20 20 00 
      28.  00:412F                      string02P: db 'LA PUERTA SE HA ABIERTO!',0
      28.  00:412F  4C 41 20 50 55 45 52 54 41 20 53 45 20 48 41 20 
      28.  00:413F  41 42 49 45 52 54 4F 21 00 
      29.  00:4148  00                  string03P: db 0
      30.  00:4149                      
      31.  00:4149                      ;game_over_strings: dw string01GO;, string02GO;, string03GO
      32.  00:4149                      ; Caben 23 caracteres en cada línea
      33.  00:4149                      ;string01GO: db 'ANDY:                   ',0
      34.  00:4149                      ;string02GO: db 'AAAAHHHHHHHHHH',0
      35.  00:4149                      ;string03GO: db 'GAME OVER!',0
      23   00:4149                      ; Funciones auxiliares
      24   00:4149                      	include "include\BTH_func.asm"
       1.  00:4149                      ;
       2.  00:4149                      ; EnemyCollisionCheck
       3.  00:4149                      ;
       4.  00:4149                      ;   Calculates whether a collision occurs between the player
       5.  00:4149                      ;   and an enemy
       6.  00:4149                      ;
       7.  00:4149                      ; IN: iy - pointer to enemy data record
       8.  00:4149                      ; OUT: Carry set if collision
       9.  00:4149                      ; CHANGES: A, B, C, E
      10.  00:4149                      ;
      11.  00:4149                      EnemyCollisionCheck:
      12.  00:4149  DD 7E 01                    ld      a,(ix+1)                     ; read player x-coordinate          [14]
      13.  00:414C  C6 0F                       add     PLAYER_COLLISION_OFFSET_X       ; add offset for smaller rectangle  [8]
      14.  00:414E  47                          ld      b,a                             ;                                   [5]
      15.  00:414F  0E 0E                       ld      c,PLAYER_WIDTH                  ; set the width of the player       [8]
      16.  00:4151                              
      17.  00:4151  FD 7E 01                    ld      a,(iy+ENEMY_X)                  ; read enemy x-coordinate           [21]
      18.  00:4154  FD 86 04                    add     (iy+ENEMY_COLLISION_OFFSET_X)   ; add offset for smaller rectangle  [21]
      19.  00:4157  FD 5E 06                    ld      e,(iy+ENEMY_COLLISION_WIDTH)    ; set the width of the enemy        [21]
      20.  00:415A                      
      21.  00:415A  CD 6F 41                    call    .check                          ;                                   [18]
      22.  00:415D  D0                          ret     nc                              ;                                   [12/6]
      23.  00:415E                      
      24.  00:415E  DD 7E 00                    ld      a,(ix)                     ; read player y-coordinate          [14]
      25.  00:4161  C6 10                       add     PLAYER_COLLISION_OFFSET_Y       ; add offset for smaller rectangle  [8]
      26.  00:4163  47                          ld      b,a                             ;                                   [5]
      27.  00:4164  0E 10                       ld      c,PLAYER_HEIGHT                 ; set the height of the player      [8]
      28.  00:4166                              
      29.  00:4166  FD 7E 02                    ld      a,(iy+ENEMY_Y)                  ; read enemy y-coordinate           [21]
      30.  00:4169  FD 86 05                    add     (iy+ENEMY_COLLISION_OFFSET_Y)   ; add offset for smaller rectangle  [21]
      31.  00:416C  FD 5E 07                    ld      e,(iy+ENEMY_COLLISION_HEIGHT)    ; set the height of the enemy      [21]
      32.  00:416F                      
      33.  00:416F                      .check:
      34.  00:416F  90                          sub     b               ; calculate x2-x1              [5]
      35.  00:4170  30 04                       jr      nc,.other       ; don't jump if x2<x1          [13/8]
      36.  00:4172  ED 44                       neg                     ; use negative value           [10]
      37.  00:4174  93                          sub     e               ; compare with size 1          [5]
      38.  00:4175  C9                          ret                     ; return result                [11]
      39.  00:4176                      .other:
      40.  00:4176  91                          sub     c               ; compare with size 1          [5]
      41.  00:4177  C9                          ret                     ; return result                [11]
      42.  00:4178                      
      43.  00:4178                      ; Dadas las coordenadas X,Y en pixels de dos sprites, devuelve 1 si hay colision
      44.  00:4178                      ;Entrada:
      45.  00:4178                      ;   B - Y SPR1
      46.  00:4178                      ;   C - X SPR1
      47.  00:4178                      
      48.  00:4178                      ;   D - Y SPR2
      49.  00:4178                      ;   E - X SPR2
      50.  00:4178                      ;Salida:
      51.  00:4178                      ;   A - colision
      52.  00:4178                      ;Modifica:
      53.  00:4178                      ;   A
      54.  00:4178                      check_spr_collision:        
      55.  00:4178  78                          LD A,B          ; a = Y SPR1
      56.  00:4179  BA                          CP D
      57.  00:417A  C2 85 41                    JP NZ,.no_collision
      58.  00:417D                      
      59.  00:417D  79                          LD A,C          ; a = X SPR1
      60.  00:417E  BB                          CP E
      61.  00:417F  C2 85 41                    JP NZ,.no_collision
      62.  00:4182                      
      63.  00:4182  3E 01                       LD A,1
      64.  00:4184  C9                          RET
      65.  00:4185                      .no_collision
      66.  00:4185  3E 00                   LD A,0
      67.  00:4187  C9                      RET
      68.  00:4188                      
      69.  00:4188                      ; Dadas las coordenadas X,Y en pixels, devuelve el bloque de 8x8 al que corresponde esas coordenadas
      70.  00:4188                      ; La tabla de colisiones es la tabla de nombres con 32x24 = 756 bytes
      71.  00:4188                      ;Entrada:
      72.  00:4188                      ;   d - X
      73.  00:4188                      ;   e - y
      74.  00:4188                      ;Salida:
      75.  00:4188                      ;   a - bloque
      76.  00:4188                      ;Modifica:
      77.  00:4188                      ;   a, hl, de
      78.  00:4188                      get_bloque_en_X_Y:
      79.  00:4188                              ;(y/8)*32+(x/8)
      80.  00:4188  7B                          ld a,e      ;a=y
      81.  00:4189  CB 3F CB 3F CB 3F   [3]     srl a       ;a=y/8
      82.  00:418F  26 00                       ld h,0
      83.  00:4191  6F                          ld l,a      ;hl=y/8
      84.  00:4192  29 29 29 29 29      [5]     add hl,hl   ;x32    ;a=(y/8)*32
      85.  00:4197                      
      86.  00:4197  7A                          ld a,d      ;a=x
      87.  00:4198  CB 3F CB 3F CB 3F   [3]     srl a       ;a=x/8
      88.  00:419E  16 00                       ld d,0
      89.  00:41A0  5F                          ld e,a      ;de=x/8
      90.  00:41A1  19                          add hl,de   ;hl=(y/8)*32+(x/8)
      91.  00:41A2                      
      92.  00:41A2  ED 5B DE C0                 ld de,(MAPA)
      93.  00:41A6  19                          add hl,de   ;hl=mapa + hl=(y/8)*32+(x/8)
      94.  00:41A7                      
      95.  00:41A7  7E                          ld a,[hl]
      96.  00:41A8  C9                          ret
      97.  00:41A9                      
      98.  00:41A9                      ; SCREEN 8
      99.  00:41A9                      SetVdp_Write:
     100.  00:41A9                      
     101.  00:41A9                      	; transform address from 
     102.  00:41A9                      	;
     103.  00:41A9                      	; |           Register A            |           Register H            |           Register L            |
     104.  00:41A9                      	; | --- --- --- --- --- --- --- A16 | A15 A14 A13 A12 A11 A10  A9  A8 |  A7  A6  A5  A4  A3  A2  A1  A0 |
     105.  00:41A9                      	;
     106.  00:41A9                      	; to
     107.  00:41A9                      	;
     108.  00:41A9                      	; |           Register A            |           Register H            |           Register L            |
     109.  00:41A9                      	; | --- --- --- --- --- A16 A15 A14 | --- --- A13 A12 A11 A10  A9  A8 |  A7  A6  A5  A4  A3  A2  A1  A0 |
     110.  00:41A9  CB 04                   rlc     h
     111.  00:41AB  17                      rla
     112.  00:41AC  CB 04                   rlc     h
     113.  00:41AE  17                      rla
     114.  00:41AF  CB 3C                   srl     h
     115.  00:41B1  CB 3C                   srl     h
     116.  00:41B3                      
     117.  00:41B3  F3                      di
     118.  00:41B4                      	    ; write bits a14-16 of address to R#14
     119.  00:41B4  D3 99               	    out     (PORT_1), a
     120.  00:41B6  3E 8E               	    ld      a, 14 + 128
     121.  00:41B8  D3 99               	    out     (PORT_1), a
     122.  00:41BA                      
     123.  00:41BA                      	    ; write the other address bits to VDP PORT_1
     124.  00:41BA  7D                  	    ld      a, l
     125.  00:41BB  00                  	    nop
     126.  00:41BC  D3 99               	    out     (PORT_1), a
     127.  00:41BE  7C                  	    ld      a, h
     128.  00:41BF  F6 40               	    or      64
     129.  00:41C1  FB                      ei
     130.  00:41C2  D3 99                   out     (PORT_1),a
     131.  00:41C4  C9                      ret
     132.  00:41C5                      
     133.  00:41C5                      Set212Lines:
     134.  00:41C5                              ; set LN (bit 7) of R#9 to 1
     135.  00:41C5  3A E8 FF                    ld      a, (REG9SAV)
     136.  00:41C8  F6 80                       or      10000000b
     137.  00:41CA  47                          ld      b, a
     138.  00:41CB  0E 09                       ld      c, 9            ; register #
     139.  00:41CD  CD 47 00                    call    WRTVDP
     140.  00:41D0  C9                          ret
     141.  00:41D1                      
     142.  00:41D1                      ClearVram_MSX2:
     143.  00:41D1  AF                          xor     a           ; set vram write base address
     144.  00:41D2  21 00 00                    ld      hl, 0     	; to 1st byte of page 0
     145.  00:41D5  CD A9 41                    call    SetVdp_Write
     146.  00:41D8  AF                          xor		a
     147.  00:41D9                      
     148.  00:41D9                          ; TODO: 
     149.  00:41D9                          ;   use VDP command (currently is taking almost 1 second)
     150.  00:41D9                          ;   disable screen/sprites (should I ??)
     151.  00:41D9                      
     152.  00:41D9                          ; clear all 128kb of VRAM
     153.  00:41D9  16 02               	ld		d, 2		; 2 repetitions
     154.  00:41DB                      .loop_2:
     155.  00:41DB  0E 00               	ld		c, 0		; 256 repetitions
     156.  00:41DD                      .loop_1:
     157.  00:41DD  06 00               	ld		b, 0		; 256 repetitions
     158.  00:41DF                      .loop:
     159.  00:41DF  D3 98               	out		(PORT_0), a
     160.  00:41E1  10 FC               	djnz	.loop
     161.  00:41E3  0D                  	dec		c
     162.  00:41E4  C2 DD 41            	jp		nz, .loop_1
     163.  00:41E7  15                  	dec		d
     164.  00:41E8  C2 DB 41            	jp		nz, .loop_2
     165.  00:41EB                      
     166.  00:41EB  C9                  	ret
     167.  00:41EC                      
     168.  00:41EC                      ; MEGAROM
     169.  00:41EC                      
     170.  00:41EC                      opening_screen		
     171.  00:41EC  0E 00               		ld		c,0
     172.  00:41EE  11 00 00            		ld		de,0
     173.  00:41F1  CD 31 42            		call	_vdpsetvramwr
     174.  00:41F4  1E 04               		ld	e,4
     175.  00:41F6  3E 09               		ld	a, :GRAPHIC
     176.  00:41F8  57                  		ld	d,a
     177.  00:41F9  32 00 70            2:		ld	(_bank2),a
     178.  00:41FC  21 00 80            		ld	hl,GRAPHIC
     179.  00:41FF  01 98 00            		ld	bc,0x98
     180.  00:4202  3E 40               		ld	a,32*2
     181.  00:4204  ED B3               1:		otir
     182.  00:4206  3D                  		dec	a
     183.  00:4207  20 FB               		jr	nz,1b
     184.  00:4209  14                  		inc	d
     185.  00:420A  7A                  		ld	a,d
     186.  00:420B  1D                  		dec	e
     187.  00:420C  20 EB               		jr	nz,2b
     188.  00:420E  C9                  		ret 
     189.  00:420F                      
     190.  00:420F                      load_screen
     191.  00:420F  0E 00               		ld		c,0
     192.  00:4211  11 00 00            		ld		de,0
     193.  00:4214  CD 31 42            		call	_vdpsetvramwr
     194.  00:4217  1E 02               		ld	e,2					; #pages
     195.  00:4219  78                  		ld	a, b			; 1st page bitmap
     196.  00:421A  57                  		ld	d,a
     197.  00:421B  32 00 70            2:		ld	(_bank2),a
     198.  00:421E  2A E0 C0            		ld	hl,(BITMAP)		; Bitmap address
     199.  00:4221  01 98 00            		ld	bc,0x98
     200.  00:4224  3E 40               		ld	a,64
     201.  00:4226  ED B3               1:		otir
     202.  00:4228  3D                  		dec	a
     203.  00:4229  20 FB               		jr	nz,1b
     204.  00:422B  14                  		inc	d
     205.  00:422C  7A                  		ld	a,d
     206.  00:422D  1D                  		dec	e
     207.  00:422E  20 EB               		jr	nz,2b
     208.  00:4230  C9                  		ret 
     209.  00:4231                      
     210.  00:4231                      ;Set VDP for writing at address CDE (17-bit) 
     211.  00:4231                      
     212.  00:4231                      _vdpsetvramwr:
     213.  00:4231  79                  	ld a,c
     214.  00:4232  CB 02               	rlc d
     215.  00:4234  17                  	rla
     216.  00:4235  CB 02               	rlc d
     217.  00:4237  17                  	rla
     218.  00:4238  CB 3A               	srl d ; primo shift, il secondo dopo la out
     219.  00:423A                      
     220.  00:423A  D3 99               	out (0x99),a ;set bits 14-16
     221.  00:423C  3E 8E               	ld a,14+128
     222.  00:423E  D3 99               	out (0x99),a
     223.  00:4240  CB 3A               	srl d ; secondo shift.     
     224.  00:4242                      _vdpsetvramwr14
     225.  00:4242  7B                  	ld a,e ;set bits 0-7
     226.  00:4243  D3 99               	out (0x99),a
     227.  00:4245  7A                  	ld a,d ;set bits 8-13
     228.  00:4246  F6 40               	or 0x40 ; + write access
     229.  00:4248  D3 99               	out (0x99),a
     230.  00:424A  C9                  	ret
     231.  00:424B                      
     232.  00:424B                      
     233.  00:424B                      
     234.  00:424B                      		; --- RUTINAS PARA COLOCAR LAS PAGINAS DEL CARTUCHO ---
     235.  00:424B                      		; -----------------------------------------------------
     236.  00:424B                      		; --- SIEMPRE DEBEN IR EN LA PAGINA 1 DEL CARTUCHO! ---
     237.  00:424B                      		; -----------------------------------------------------
     238.  00:424B                      
     239.  00:424B                      		; --- RUTINAS PRINCIPALES DEL MODULO ---
     240.  00:424B                      		; GETSLOT:	OBTIENE EL VALOR DEL SLOT QUE LE INDIQUEMOS
     241.  00:424B                      		; SETPAGES32K:	BIOS-ROM-YY-ZZ	 -> BIOS-ROM-ROM-ZZ (SITUA PAGINA 2)
     242.  00:424B                      
     243.  00:424B                      		; --- VARIABLES EN RAM NECESARIAS ---
     244.  00:424B                      		; NINGUNA
     245.  00:424B                      
     246.  00:424B                      GETSLOT:	; --- Rutina que construye el valor del SLOT para llamar a ENASLT ---
     247.  00:424B                      		; --- Entrada: a = SLOT                                           ---
     248.  00:424B                      		; --- Salida: a = valor para ENASLT                               ---
     249.  00:424B                      		; --- AUTOR: Konamiman                                            ---
     250.  00:424B  E6 03               		and	$03				; Proteccion, nos aseguramos de que el valor esta en 0-3
     251.  00:424D  4F                  		ld	c,a				; c = slot de la pagina
     252.  00:424E  06 00               		ld	b,0				; bc = slot de la pagina
     253.  00:4250  21 C1 FC            		ld	hl,$FCC1			; Tabla de slots expandidos
     254.  00:4253  09                  		add	hl,bc				; hl -> variable que indica si este slot esta expandido
     255.  00:4254  7E                  		ld	a,(hl)				; Tomamos el valor
     256.  00:4255  E6 80               		and	$80				; Si el bit mas alto es cero...
     257.  00:4257  28 09               		jr	z,EXIT			; ...nos vamos a @@EXIT
     258.  00:4259                      		; --- El slot esta expandido ---
     259.  00:4259  B1                  		or	c				; Slot basico en el lugar adecuado
     260.  00:425A  4F                  		ld	c,a				; Guardamos el valor en c
     261.  00:425B  23                  		inc	hl				; Incrementamos hl una...
     262.  00:425C  23                  		inc	hl				; ...dos...
     263.  00:425D  23                  		inc	hl				; ...tres...
     264.  00:425E  23                  		inc	hl				; ...cuatro veces
     265.  00:425F  7E                  		ld	a,(hl)				; a = valor del registro de subslot del slot donde estamos
     266.  00:4260  E6 0C               		and	$0C				; Nos quedamos con el valor donde esta nuestro cartucho
     267.  00:4262  B1                  EXIT:		or	c				; Slot extendido/basico en su lugar
     268.  00:4263  C9                  		ret					; Volvemos
     269.  00:4264                      
     270.  00:4264                      SETPAGES32K:	; --- Posiciona las paginas de un megarom o un 32K ---
     271.  00:4264  3E C9               		ld	a,$C9				; Codigo de RET
     272.  00:4266  32 69 42            		ld	(NOPRET),a			; Modificamos la siguiente instruccion si estamos en RAM
     273.  00:4269  00                  NOPRET:	nop					; No hacemos nada si no estamos en RAM
     274.  00:426A                      		; --- Si llegamos aqui no estamos en RAM, hay que posicionar la pagina ---
     275.  00:426A  CD 38 01            		call	RSLREG  			; Leemos el contenido del registro de seleccion de slots
     276.  00:426D  0F                  		rrca					; Rotamos a la derecha...
     277.  00:426E  0F                  		rrca					; ...dos veces
     278.  00:426F  CD 4B 42            		call	GETSLOT				; Obtenemos el slot de la pagina 1 ($4000-$BFFF)
     279.  00:4272  26 80               		ld	h,$80				; Seleccionamos pagina 2 ($8000-$BFFF)
     280.  00:4274  C3 24 00            		jp	ENASLT ;ENASLT
     281.  00:4277                      
     282.  00:4277                      SET_SCREEN5_MODE:
     283.  00:4277                           ;Cambiamos el modo de pantalla
     284.  00:4277                          ; BASIC: COLOR 15,1,1
     285.  00:4277                          ; Establecer los colores
     286.  00:4277  21 E9 F3            	ld hl,FORCLR ; Variable del Sistema
     287.  00:427A  36 0F               	ld [hl],15 ; Color del primer plano 15=blanco
     288.  00:427C  23                  	inc hl ; FORCLR+1
     289.  00:427D  36 0F               	ld [hl],15 ; Color de fondo 1=negro
     290.  00:427F  23                  	inc hl ; FORCLR+2
     291.  00:4280  36 0F               	ld [hl],15 ; Color del borde 1=negro
     292.  00:4282                      
     293.  00:4282  3E 05                   ld  a,5     
     294.  00:4284  CD 5F 00                call CHGMOD 
     295.  00:4287  CD 69 00            	call CLRSPR
     296.  00:428A                      
     297.  00:428A  3A E0 F3                ld a,(RG15AV) ; esta dirección de memoria almacena el valor del registro de lectura del VDP, mira arriba
     298.  00:428D                          ;En or 0+0=0, 0+1=1, 1+1=1
     299.  00:428D                          ;En and 0+0=0, 0+1=0, 1+1=1
     300.  00:428D                          ;Con eso queremos cambiar los bits 7 y 8 del registro de escritura 1 del z80, queremos poner el 7 a 1 y también el 8 a 1
     301.  00:428D                          ;el bit 7 del registro 1 pone los sprites en modo 16x16 (los que nostros queremos dibujar)
     302.  00:428D                          ;el bit 8 queremos desactivarlo para no utilizar los sprites agrandados
     303.  00:428D  F6 02                   or 00000010b ; con or poniendo un 0 siempre respetamos los bits que hay y poniendo 1 1 obligamos a que sea 1
     304.  00:428F                          ;and 11111110b ; con and obligamos a que el ultimo bit valga 0
     305.  00:428F  E6 FE                   and 11111110b ; con and obligamos a que el ultimo bit valga 0
     306.  00:4291                      
     307.  00:4291  47                      ld b,a ;carga en b el valor de a
     308.  00:4292  0E 01                   ld c,1 ; La rutina WRTVDP necesta que le carguemos previamente el entero en C del z80 del registro que queroms modificar
     309.  00:4294  CD 47 00                call WRTVDP ;Escribe en los registros del VDP 
     310.  00:4297  AF                      xor a ; ld a,0
     311.  00:4298  32 DB F3            	ld [CLIKSW],a ; Variable BIOS desactivar sonido teclas
     312.  00:429B  C9                      ret
     313.  00:429C                      
     314.  00:429C                      DUMP_SPR_ALL:
     315.  00:429C                      
     316.  00:429C                      ;-----------------------------Definición del sprite en #7800  y volcado a la VRAM-------------------------------------------
     317.  00:429C                      
     318.  00:429C  21 BC 68                ld hl, SPRITE_PATTERN ; la rutina LDIRVM necesita haber cargado previamente la dirección de inicio de la RAM, para saber porqué he puesto 03800 fíjate este dibujo https://sites.google.com/site/multivac7/files-images/TMS9918_VRAMmap_G2_300dpi.png ,así es como está formado el VDP en screen 2
     319.  00:429F  11 00 78                ld de, #7800; la rutina necesita haber cargado previamente con de la dirección de inicio de la VRAM          
     320.  00:42A2  01 E0 02                ld bc, 8*4*23; 8 byte de cada tile * 4 que son los sprites de 16x16 y * #sprites
     321.  00:42A5  CD 5C 00                call  LDIRVM ; Mira arriba, pone la explicación
     322.  00:42A8                      
     323.  00:42A8                      ;-----------------------------Definición de los atributos en #7600 y volcado a la VRAM------------------------------------
     324.  00:42A8                      
     325.  00:42A8  21 55 C0                ld hl, SPRITE_ATTRS ; la rutina LDIRVM necesita haber cargado previamente la dirección de inicio de la RAM, para saber porqué he puesto 0000 fíjate este dibujo https://sites.google.com/site/multivac7/files-images/TMS9918_VRAMmap_G2_300dpi.png ,así es como está formado el VDP en screen 2
     326.  00:42AB  11 00 76                ld de, #7600; la rutina necesita haber cargado previamente con de la dirección de inicio de la VRAM          
     327.  00:42AE  01 80 00                ld bc,128; 4 x #Sprites
     328.  00:42B1  CD 5C 00                call  LDIRVM ; Mira arriba, pone la explicación
     329.  00:42B4                      
     330.  00:42B4                      ;-----------------------------Definición de los colores en #7400 y volcado a la VRAM------------------------------------
     331.  00:42B4                      
     332.  00:42B4  21 9C 6B                ld hl, SPRITE_COLOR_TABLE ; la rutina LDIRVM necesita haber cargado previamente la dirección de inicio de la RAM, para saber porqué he puesto 0000 fíjate este dibujo https://sites.google.com/site/multivac7/files-images/TMS9918_VRAMmap_G2_300dpi.png ,así es como está formado el VDP en screen 2
     333.  00:42B7  11 00 74                ld de, #7400; la rutina necesita haber cargado previamente con de la dirección de inicio de la VRAM          
     334.  00:42BA  01 70 01                ld bc,16*23; 16 x #Sprites
     335.  00:42BD  CD 5C 00                call  LDIRVM ; Mira arriba, pone la explicación
     336.  00:42C0  C9                      ret
     337.  00:42C1                      	
     338.  00:42C1                      load_tiles_vdp
     339.  00:42C1                          
     340.  00:42C1                      	;ld hl, TILES1
     341.  00:42C1  11 00 80                ld de, 0x8000; la rutina necesita haber cargado previamente con de la dirección de inicio de la VRAM          
     342.  00:42C4  01 00 08                ld bc,128*16; 16 lineas
     343.  00:42C7  CD 5C 00                call  LDIRVM ; Mira arriba, pone la explicación
     344.  00:42CA  C9                  	ret 
     345.  00:42CB                      
     346.  00:42CB                      DUMP_SPR_ATTS:
     347.  00:42CB                      
     348.  00:42CB                      ;-----------------------------Definición de los atributos en #1E00 y volcado a la VRAM------------------------------------
     349.  00:42CB                      
     350.  00:42CB  21 55 C0                ld hl, SPRITE_ATTRS ; la rutina LDIRVM necesita haber cargado previamente la dirección de inicio de la RAM, para saber porqué he puesto 0000 fíjate este dibujo https://sites.google.com/site/multivac7/files-images/TMS9918_VRAMmap_G2_300dpi.png ,así es como está formado el VDP en screen 2
     351.  00:42CE  11 00 76                ld de, #7600	; la rutina necesita haber cargado previamente con de la dirección de inicio de la VRAM          
     352.  00:42D1  01 20 00                ld bc,32		; 4 x #Sprites mostrados
     353.  00:42D4  CD 5C 00                call  LDIRVM 	; Mira arriba, pone la explicación
     354.  00:42D7                      
     355.  00:42D7                      ;	ld a, (SPRITE_COLOR_REPLACE2)
     356.  00:42D7                      ;	JP Z,.DUMP_SPR_ATTS_END
     357.  00:42D7  2A DC C0            	ld hl, (SPRITE_COLOR_REPLACE2) ; la rutina LDIRVM necesita haber cargado previamente la dirección de inicio de la RAM, para saber porqué he puesto 0000 fíjate este dibujo https://sites.google.com/site/multivac7/files-images/TMS9918_VRAMmap_G2_300dpi.png ,así es como está formado el VDP en screen 2
     358.  00:42DA  11 00 74                ld de, #7400; la rutina necesita haber cargado previamente con de la dirección de inicio de la VRAM          
     359.  00:42DD  C5                      PUSH BC
     360.  00:42DE  01 30 00            	ld bc,16*3; 16 x #Sprites
     361.  00:42E1  CD 5C 00                call  LDIRVM 
     362.  00:42E4  C1                  	POP BC
     363.  00:42E5                      
     364.  00:42E5                      .DUMP_SPR_ATTS_END:
     365.  00:42E5  C9                      ret
     366.  00:42E6                      
     367.  00:42E6                      DUMP_SPR_P1:    
     368.  00:42E6                      ;-----------------------------Definición del sprite en #7800  y volcado a la VRAM-------------------------------------------
     369.  00:42E6                      
     370.  00:42E6  2A D8 C0                ld hl, (SPRITE_PTR_REPLACE) ; la rutina LDIRVM necesita haber cargado previamente la dirección de inicio de la RAM, para saber porqué he puesto 03800 fíjate este dibujo https://sites.google.com/site/multivac7/files-images/TMS9918_VRAMmap_G2_300dpi.png ,así es como está formado el VDP en screen 2
     371.  00:42E9  11 00 78                ld de, #7800; la rutina necesita haber cargado previamente con de la dirección de inicio de la VRAM          
     372.  00:42EC  C5                      PUSH BC
     373.  00:42ED  01 C0 00            	ld bc, 192; 32 bytes por sprite * 3 planos * 2 frames
     374.  00:42F0  CD 5C 00                call  LDIRVM 
     375.  00:42F3  C1                  	POP BC
     376.  00:42F4                      
     377.  00:42F4                      ;-----------------------------Definición de los colores en #7400 y volcado a la VRAM------------------------------------
     378.  00:42F4                      
     379.  00:42F4  2A DA C0                ld hl, (SPRITE_COLOR_REPLACE) ; la rutina LDIRVM necesita haber cargado previamente la dirección de inicio de la RAM, para saber porqué he puesto 0000 fíjate este dibujo https://sites.google.com/site/multivac7/files-images/TMS9918_VRAMmap_G2_300dpi.png ,así es como está formado el VDP en screen 2
     380.  00:42F7  11 00 74                ld de, #7400; la rutina necesita haber cargado previamente con de la dirección de inicio de la VRAM          
     381.  00:42FA  C5                      PUSH BC
     382.  00:42FB  01 30 00            	ld bc,16*3; 16 x #Sprites
     383.  00:42FE  CD 5C 00                call  LDIRVM 
     384.  00:4301  C1                  	POP BC
     385.  00:4302                      	
     386.  00:4302                      
     387.  00:4302                      ; Replace 4 sprites(P1) in Sprite Pattern Table
     388.  00:4302                      ;    xor a
     389.  00:4302                      ;	di			; set VRAM address to 1800h
     390.  00:4302                      ;	out (99h),a		; lower byte 00
     391.  00:4302                      ;	ld a,78h + 040h		; upper byte 7800h with flag to set the bus in write mode (3800 VRAM: Sprite Pattern Table)
     392.  00:4302                      ;	ei
     393.  00:4302                      ;	out (99h),a		; note that this is protected by the ei instruction
     394.  00:4302                      ;   push BC
     395.  00:4302                      ;	ld bc,8098h     ; 80h = 128 bytes y port 98h 
     396.  00:4302                      ;	ld hl,(SPRITE_PTR_REPLACE)
     397.  00:4302                      
     398.  00:4302                      ;.loop1:
     399.  00:4302                      ;	outi			; send the data (HL) to port 98h 
     400.  00:4302                      ;	jp nz,.loop1		; the inner loop is exactly 29 cycles. 
     401.  00:4302                      ;   POP BC
     402.  00:4302                      
     403.  00:4302                          ; Replace 2 entries in sprite color table
     404.  00:4302                      ;    xor a
     405.  00:4302                      ;	di			; set VRAM address to 1800h
     406.  00:4302                      ;	out (99h),a		; lower byte 00
     407.  00:4302                      ;	ld a,74h + 040h		; upper byte 7400h with flag to set the bus in write mode (1C00 VRAM: Sprite Color Table)
     408.  00:4302                      ;	ei
     409.  00:4302                      ;	out (99h),a		; note that this is protected by the ei instruction
     410.  00:4302                       ;   push BC
     411.  00:4302                      ;	ld bc,2098h     ; 20h = 32 bytes y port 98h 
     412.  00:4302                      ;	ld hl,(SPRITE_COLOR_REPLACE)
     413.  00:4302                      	
     414.  00:4302                      ;.loop2:
     415.  00:4302                      ;	outi			; send the data (HL) to port 98h 
     416.  00:4302                      ;	jp nz,.loop2		; the inner loop is exactly 29 cycles. 
     417.  00:4302                       ;   POP BC
     418.  00:4302                      
     419.  00:4302  C9                      ret
     420.  00:4303                      
     421.  00:4303                      SetPalette:
     422.  00:4303  AF                  	xor a
     423.  00:4304  F3                  	di
     424.  00:4305  D3 99               	out ($99),a
     425.  00:4307  3E 90               	ld a,16+128
     426.  00:4309  D3 99               	out ($99),a
     427.  00:430B  01 9A 20            	ld bc,$209A
     428.  00:430E  ED B3               	otir
     429.  00:4310  FB                  	ei
     430.  00:4311  C9                  	ret
      25   00:4312                          include "include\BTH_animate.asm"
       1.  00:4312                      ; Movimiento P1
       2.  00:4312                      move_up:
       3.  00:4312  A9                      XOR C               ; Reseteamos la entrada del teclado
       4.  00:4313                          ; Actualizamos la última tecla de dirección pulsada
       5.  00:4313  AF                      XOR A
       6.  00:4314  32 50 C0                LD (CHAR_NEW_DIR_MAIN),A
       7.  00:4317  CD 45 44                CALL CHECK_DIRECTION_MAIN
       8.  00:431A                      
       9.  00:431A  DD 7E 00                ld a,(ix); obtenemos el valor actual de la posicion y
      10.  00:431D  D6 01                   sub 1 ; decrementamos en 1 el valor, aunque realmente será dos por el desplazamiento de la Y que hace el VDP
      11.  00:431F  5F                      ld e,a  ; Metemos el parametro Y para verificar si hay colision
      12.  00:4320  DD 7E 01                ld a,(ix+1)
      13.  00:4323  57                      ld d,a  ; Metemos el parametro X para verificar si hay colision
      14.  00:4324  CD 88 41                call get_bloque_en_X_Y
      15.  00:4327  FE 01                   cp 1
      16.  00:4329  CA 3E 45                jp z,NO_MOVEMENT
      17.  00:432C                      
      18.  00:432C  DD 7E 00                ld a,(ix); obtenemos el valor actual de la posicion y
      19.  00:432F  D6 01                   sub 1 ; decrementamos en 1 el valor, aunque realmente será dos por el desplazamiento de la Y que hace el VGP
      20.  00:4331  5F                      ld e,a  ; Metemos el parametro Y para verificar si hay colision
      21.  00:4332  DD 7E 01                ld a,(ix+1)
      22.  00:4335  C6 0A                   add 10 ; miramos la segunda tile 8+2
      23.  00:4337  57                      ld d,a  ; Metemos el parametro X para verificar si hay colision
      24.  00:4338  CD 88 41                call get_bloque_en_X_Y
      25.  00:433B  FE 01                   cp 1
      26.  00:433D  CA 3E 45                jp z,NO_MOVEMENT
      27.  00:4340                            
      28.  00:4340  3E FF               	LD A, -MOV_SPEED
      29.  00:4342  32 47 C0            	LD (CHAR_SPEED_Y), A
      30.  00:4345  CD D2 44                call UPDATE_MOVEMENT   
      31.  00:4348  CD FA 44                call ANIMATE_P1
      32.  00:434B                          ;JP no_arrows
      33.  00:434B  C9                      ret
      34.  00:434C                      
      35.  00:434C                      move_down:
      36.  00:434C  A9                      XOR C               ; Reseteamos la entrada del teclado
      37.  00:434D                          ; Actualizamos la última tecla de dirección pulsada
      38.  00:434D  3E 01                   LD A,$01
      39.  00:434F  32 50 C0                LD (CHAR_NEW_DIR_MAIN),A
      40.  00:4352  CD 45 44                CALL CHECK_DIRECTION_MAIN
      41.  00:4355                      
      42.  00:4355  DD 7E 00                ld a,(ix); obtenemos el valor actual de la posicion y
      43.  00:4358  C6 11                   add 17 ; incrementamos en 15+2 el valor
      44.  00:435A  5F                      ld e,a  ; Metemos el parametro Y para verificar si hay colision
      45.  00:435B  DD 7E 01                ld a,(ix+1)
      46.  00:435E  57                      ld d,a  ; Metemos el parametro X para verificar si hay colision
      47.  00:435F  CD 88 41                call get_bloque_en_X_Y
      48.  00:4362  FE 01                   cp 1
      49.  00:4364  CA 3E 45                jp z,NO_MOVEMENT
      50.  00:4367                      
      51.  00:4367  DD 7E 00                ld a,(ix); obtenemos el valor actual de la posicion y
      52.  00:436A  C6 11                   add 17 ; incrementamos en 15 el valor
      53.  00:436C  5F                      ld e,a  ; Metemos el parametro Y para verificar si hay colision
      54.  00:436D  DD 7E 01                ld a,(ix+1)
      55.  00:4370  C6 0A                   add 10 ; miramos la segunda tile 8+2
      56.  00:4372  57                      ld d,a  ; Metemos el parametro X para verificar si hay colision    
      57.  00:4373  CD 88 41                call get_bloque_en_X_Y
      58.  00:4376  FE 01                   cp 1
      59.  00:4378  CA 3E 45                jp z,NO_MOVEMENT
      60.  00:437B                          
      61.  00:437B  3E 01                   LD A, MOV_SPEED
      62.  00:437D  32 47 C0            	LD (CHAR_SPEED_Y), A
      63.  00:4380  CD D2 44                call UPDATE_MOVEMENT    
      64.  00:4383  CD FA 44                call ANIMATE_P1
      65.  00:4386                          ;JP no_arrows
      66.  00:4386  C9                      ret
      67.  00:4387                      
      68.  00:4387                      move_right:
      69.  00:4387  A9                      XOR C               ; Reseteamos la entrada del teclado
      70.  00:4388                          ; Actualizamos la última tecla de dirección pulsada
      71.  00:4388  CB 69                   BIT KB_UP, C
      72.  00:438A  28 0C                   JR z, .KB_UPDOWN_PRESSED
      73.  00:438C  CB 71                   BIT KB_DOWN, C
      74.  00:438E  28 08                   JR z, .KB_UPDOWN_PRESSED
      75.  00:4390  3E 03                   LD A,$03
      76.  00:4392  32 50 C0                LD (CHAR_NEW_DIR_MAIN),A
      77.  00:4395  CD 45 44                CALL CHECK_DIRECTION_MAIN
      78.  00:4398                      
      79.  00:4398                      .KB_UPDOWN_PRESSED:
      80.  00:4398  DD 7E 01                ld a,(ix+1); obtenemos el valor actual de la posicion x   
      81.  00:439B  C6 10                   add 16; incrementamos en 3 el valor
      82.  00:439D  57                      ld d,a  ; Metemos el parametro X para verificar si hay colision
      83.  00:439E  DD 7E 00                ld a,(ix)   ;obtenemos el valor actual de la posicion Y
      84.  00:43A1  C6 01                   add 1   ; incrementamos en 1 por el desplazamiento del VGP
      85.  00:43A3  5F                      ld e,a  ; Metemos el parametro Y para verificar si hay colision
      86.  00:43A4  CD 88 41                call get_bloque_en_X_Y
      87.  00:43A7  FE 01                   cp 1
      88.  00:43A9  CA 3E 45                jp z,NO_MOVEMENT
      89.  00:43AC                      
      90.  00:43AC                          ;Miramos el tile del byte inferior del sprite - centro personaje
      91.  00:43AC  DD 7E 01                ld a,(ix+1); obetenemos el valor actual de la posicion x   
      92.  00:43AF  C6 10                   add 16; incrementamos en 2 tiles el valor
      93.  00:43B1  57                      ld d,a  ; Metemos el parametro X para verificar si hay colision
      94.  00:43B2  DD 7E 00                ld a,(ix) ;obtenemos el valor actual de la posicion y
      95.  00:43B5  C6 08                   add 8 ; Añadimos 8 para mirar el tile inferior - centro
      96.  00:43B7  5F                      ld e,a  ; Metemos el parametro Y para verificar si hay colision
      97.  00:43B8  CD 88 41                call get_bloque_en_X_Y
      98.  00:43BB  FE 01                   cp 1
      99.  00:43BD  CA 3E 45                jp z,NO_MOVEMENT
     100.  00:43C0                      
     101.  00:43C0                          ;Miramos el tile del byte inferior del sprite - esquina inferior derecha
     102.  00:43C0  DD 7E 01                ld a,(ix+1); obetenemos el valor actual de la posicion x   
     103.  00:43C3  C6 10                   add 16; incrementamos en 2 tiles el valor
     104.  00:43C5  57                      ld d,a  ; Metemos el parametro X para verificar si hay colision
     105.  00:43C6  DD 7E 00                ld a,(ix) ;obtenemos el valor actual de la posicion y
     106.  00:43C9  C6 0F                   add 15 ; Añadimos 8+1 para mirar la esquina inferior derecha del tile inferior
     107.  00:43CB  5F                      ld e,a  ; Metemos el parametro Y para verificar si hay colision
     108.  00:43CC  CD 88 41                call get_bloque_en_X_Y
     109.  00:43CF  FE 01                   cp 1
     110.  00:43D1  CA 3E 45                jp z,NO_MOVEMENT    
     111.  00:43D4                          
     112.  00:43D4  3E 01                   LD A, MOV_SPEED
     113.  00:43D6  32 46 C0            	LD (CHAR_SPEED_X), A
     114.  00:43D9  CD D2 44                call UPDATE_MOVEMENT
     115.  00:43DC  CB 69                   BIT KB_UP, C
     116.  00:43DE  C8                      ret z
     117.  00:43DF  CB 71                   BIT KB_DOWN, C
     118.  00:43E1  C8                      ret z
     119.  00:43E2  CD FA 44                call ANIMATE_P1    
     120.  00:43E5  C9                      ret
     121.  00:43E6                      
     122.  00:43E6                      move_left:
     123.  00:43E6  A9                      XOR C               ; Reseteamos la entrada del teclado
     124.  00:43E7                          ; Actualizamos la última tecla de dirección pulsada
     125.  00:43E7  CB 69                   BIT KB_UP, C
     126.  00:43E9  28 0C                   JR z, .KB_UPDOWN_PRESSED
     127.  00:43EB  CB 71                   BIT KB_DOWN, C
     128.  00:43ED  28 08                   JR z, .KB_UPDOWN_PRESSED
     129.  00:43EF  3E 02                   LD A,$02
     130.  00:43F1  32 50 C0                LD (CHAR_NEW_DIR_MAIN),A
     131.  00:43F4  CD 45 44                CALL CHECK_DIRECTION_MAIN
     132.  00:43F7                      .KB_UPDOWN_PRESSED:
     133.  00:43F7  DD 7E 01                ld a,(ix+1); obetenemos el valor actual de la posicion x
     134.  00:43FA  D6 02                   sub 2 ; decrementamos en 2 el valor
     135.  00:43FC  57                      ld d,a  ; Metemos el parametro X para verificar si hay colision
     136.  00:43FD  DD 7E 00                ld a,(ix)   ;obtenemos el valor actual de la posicion Y
     137.  00:4400  C6 01                   add 1   ; incrementamos en 1 por el desplazamiento del VGP
     138.  00:4402  5F                      ld e,a  ; Metemos el parametro Y para verificar si hay colision
     139.  00:4403  CD 88 41                call get_bloque_en_X_Y
     140.  00:4406  FE 01                   cp 1
     141.  00:4408  CA 3E 45                jp z,NO_MOVEMENT
     142.  00:440B                      
     143.  00:440B                          ;Miramos el tile inferior parte central del personaje
     144.  00:440B  DD 7E 01                ld a,(ix+1); obetenemos el valor actual de la posicion x
     145.  00:440E  D6 02                   sub 2 ; decrementamos en 2 el valor
     146.  00:4410  57                      ld d,a  ; Metemos el parametro X para verificar si hay colision
     147.  00:4411  DD 7E 00                ld a,(ix)   ;obtenemos el valor actual de la posicion Y
     148.  00:4414  C6 08                   add 8   ; incrementamos en 8 para mirar la parte central del personaje
     149.  00:4416  5F                      ld e,a  ; Metemos el parametro Y para verificar si hay colision
     150.  00:4417  CD 88 41                call get_bloque_en_X_Y
     151.  00:441A  FE 01                   cp 1
     152.  00:441C  CA 3E 45                jp z,NO_MOVEMENT
     153.  00:441F                      
     154.  00:441F                          ;Miramos el tile inferior esquina inferior izquierda
     155.  00:441F  DD 7E 01                ld a,(ix+1); obetenemos el valor actual de la posicion x
     156.  00:4422  D6 02                   sub 2 ; decrementamos en 2 el valor
     157.  00:4424  57                      ld d,a  ; Metemos el parametro X para verificar si hay colision
     158.  00:4425  DD 7E 00                ld a,(ix)   ;obtenemos el valor actual de la posicion Y
     159.  00:4428  C6 0F                   add 15   ; incrementamos en 8 para mirar la parte central del personaje (-1 por el offset del VGP)
     160.  00:442A  5F                      ld e,a  ; Metemos el parametro Y para verificar si hay colision
     161.  00:442B  CD 88 41                call get_bloque_en_X_Y
     162.  00:442E  FE 01                   cp 1
     163.  00:4430  CA 3E 45                jp z,NO_MOVEMENT
     164.  00:4433                      
     165.  00:4433  3E FF                   LD A, -MOV_SPEED
     166.  00:4435  32 46 C0            	LD (CHAR_SPEED_X), A
     167.  00:4438  CD D2 44                call UPDATE_MOVEMENT     
     168.  00:443B  CB 69                   BIT KB_UP, C
     169.  00:443D  C8                      ret z
     170.  00:443E  CB 71                   BIT KB_DOWN, C
     171.  00:4440  C8                      ret z
     172.  00:4441  CD FA 44                call ANIMATE_P1    
     173.  00:4444  C9                      ret
     174.  00:4445                      
     175.  00:4445                      CHECK_DIRECTION_MAIN:
     176.  00:4445  3A 4F C0                LD A, (CHAR_DIR_MAIN)		                ;Cargamos el valor anterior de direccion
     177.  00:4448  2A 50 C0            	LD HL, (CHAR_NEW_DIR_MAIN)		            ;Cargamos el valor actual de direccion
     178.  00:444B  BD                  	CP L		            	                ;Son iguales?
     179.  00:444C  C8                  	RET Z                           			;Si son iguales, vuelvo
     180.  00:444D  3A 50 C0                LD A,(CHAR_NEW_DIR_MAIN)
     181.  00:4450  FE 01                   CP $01
     182.  00:4452  CA 67 44                JP Z,.SET_DIR_DOWN
     183.  00:4455  FE 00                   CP $00
     184.  00:4457  CA 7C 44                JP Z,.SET_DIR_UP
     185.  00:445A  FE 03                   CP $03
     186.  00:445C  CA A6 44                JP Z,.SET_DIR_RIGHT
     187.  00:445F  FE 02                   CP $02
     188.  00:4461  CA 91 44                JP Z,.SET_DIR_LEFT
     189.  00:4464  C3 BB 44                JP .FINISH
     190.  00:4467                          
     191.  00:4467                      .SET_DIR_DOWN:    
     192.  00:4467  21 7C 66                ld hl, SPRITE_P1_DOWN
     193.  00:446A  22 D8 C0                ld (SPRITE_PTR_REPLACE), HL
     194.  00:446D                          
     195.  00:446D  21 7C 6C                ld hl, SPRITE_COLOR_P1_DOWN
     196.  00:4470  22 DA C0                ld (SPRITE_COLOR_REPLACE), HL    
     197.  00:4473  22 DC C0                ld (SPRITE_COLOR_REPLACE2), HL
     198.  00:4476  CD E6 42                CALL DUMP_SPR_P1    
     199.  00:4479                      
     200.  00:4479  C3 BB 44                JP .FINISH
     201.  00:447C                      
     202.  00:447C                      .SET_DIR_UP:
     203.  00:447C  21 BC 65                ld hl, SPRITE_P1_UP
     204.  00:447F  22 D8 C0                ld (SPRITE_PTR_REPLACE), HL
     205.  00:4482                          
     206.  00:4482  21 1C 6C                ld hl, SPRITE_COLOR_P1_UP
     207.  00:4485  22 DA C0                ld (SPRITE_COLOR_REPLACE), HL
     208.  00:4488  22 DC C0                ld (SPRITE_COLOR_REPLACE2), HL
     209.  00:448B  CD E6 42                CALL DUMP_SPR_P1
     210.  00:448E  C3 BB 44                JP .FINISH
     211.  00:4491                      
     212.  00:4491                      .SET_DIR_LEFT:    
     213.  00:4491  21 3C 67                ld hl, SPRITE_P1_LEFT
     214.  00:4494  22 D8 C0                ld (SPRITE_PTR_REPLACE), HL
     215.  00:4497                          
     216.  00:4497  21 A8 76                ld hl, SPRITE_COLOR_P1_LEFT
     217.  00:449A  22 DA C0                ld (SPRITE_COLOR_REPLACE), HL
     218.  00:449D  22 DC C0                ld (SPRITE_COLOR_REPLACE2), HL
     219.  00:44A0  CD E6 42                CALL DUMP_SPR_P1   
     220.  00:44A3  C3 BB 44                JP .FINISH
     221.  00:44A6                      
     222.  00:44A6                      .SET_DIR_RIGHT:
     223.  00:44A6  21 FC 67                ld hl, SPRITE_P1_RIGHT
     224.  00:44A9  22 D8 C0                ld (SPRITE_PTR_REPLACE), HL
     225.  00:44AC                          
     226.  00:44AC  21 DC 6C                ld hl, SPRITE_COLOR_P1_RIGHT
     227.  00:44AF  22 DA C0                ld (SPRITE_COLOR_REPLACE), HL
     228.  00:44B2  22 DC C0                ld (SPRITE_COLOR_REPLACE2), HL
     229.  00:44B5                          ;    ld (ix+13), $10      ; Sprite 1 - Ghost
     230.  00:44B5  CD E6 42                CALL DUMP_SPR_P1
     231.  00:44B8  C3 BB 44                JP .FINISH
     232.  00:44BB                      
     233.  00:44BB                      .FINISH:
     234.  00:44BB  AF                      XOR A   ; reseteamos el contador de pasos
     235.  00:44BC  32 52 C0                LD (CHAR_MIN_STEP), A   
     236.  00:44BF  3A 50 C0                LD A, (CHAR_NEW_DIR_MAIN)   ; Actualizamos la nueva dirección del personaje
     237.  00:44C2  32 4F C0                LD (CHAR_DIR_MAIN),A    
     238.  00:44C5                      
     239.  00:44C5                          ; ponemos el primer frame del sprite
     240.  00:44C5  DD 36 02 00             LD (ix+2), $00
     241.  00:44C9  DD 36 06 04             LD (ix+6), $04
     242.  00:44CD  DD 36 0A 08             LD (ix+10), $08
     243.  00:44D1                          ;CALL DUMP_SPR_ATTS
     244.  00:44D1  C9                      RET
     245.  00:44D2                      
     246.  00:44D2                      UPDATE_MOVEMENT:
     247.  00:44D2  DD 7E 00            	LD A, (ix)          ;cargamos la Y			
     248.  00:44D5  2A 47 C0            	LD HL, (CHAR_SPEED_Y)
     249.  00:44D8  85                  	ADD L					; Actualizamos la posicion en base a la velocidad
     250.  00:44D9                          
     251.  00:44D9  DD 77 00            	LD (ix), A
     252.  00:44DC  DD 77 04                LD (ix+4), A
     253.  00:44DF  DD 77 08                LD (ix+8), A
     254.  00:44E2                      	
     255.  00:44E2  DD 7E 01            	LD A, (ix+1)			;cargamos la X
     256.  00:44E5  2A 46 C0            	LD HL, (CHAR_SPEED_X)
     257.  00:44E8  85                  	ADD L   					; Actualizamos la posicion en base a la velocidad
     258.  00:44E9                          
     259.  00:44E9  DD 77 01            	LD (ix+1), A
     260.  00:44EC  DD 77 05                LD (ix+5), A
     261.  00:44EF  DD 77 09                LD (ix+9), A	
     262.  00:44F2                      
     263.  00:44F2  AF                      XOR A            ; reseteamos las variables de movimiento para el siguiente ciclo
     264.  00:44F3  32 46 C0                LD (CHAR_SPEED_X),A
     265.  00:44F6  32 47 C0                LD (CHAR_SPEED_Y),A	
     266.  00:44F9  C9                      RET
     267.  00:44FA                      
     268.  00:44FA                      ANIMATE_P1:
     269.  00:44FA                          ; Animación/pasos de personaje	
     270.  00:44FA  3A 52 C0                LD A, (CHAR_MIN_STEP)
     271.  00:44FD  FE 05                   CP MAX_CHAR_STEPS
     272.  00:44FF  C2 38 45                JP NZ,.NO_CHAR_PATTERN_CHANGE
     273.  00:4502                          
     274.  00:4502  AF                      XOR A
     275.  00:4503  32 52 C0                LD (CHAR_MIN_STEP), A   ; reseteamos el contador de pasos
     276.  00:4506  DD 7E 02                LD A, (ix+2)    ; Cargamos el patrón
     277.  00:4509  FE 00                   CP $00
     278.  00:450B  CA 21 45                JP Z,.SET_SPR_1P_2
     279.  00:450E  DD 36 02 00             LD (ix+2), $00
     280.  00:4512  DD 36 06 04             LD (ix+6), $04
     281.  00:4516  DD 36 0A 08             LD (ix+10), $08
     282.  00:451A  2A DA C0                ld hl, (SPRITE_COLOR_REPLACE)
     283.  00:451D  22 DC C0                ld (SPRITE_COLOR_REPLACE2), HL
     284.  00:4520  C9                      ret
     285.  00:4521                      
     286.  00:4521                      .SET_SPR_1P_2:
     287.  00:4521  DD 36 02 0C             LD (ix+2), $0C
     288.  00:4525  DD 36 06 10             LD (ix+6), $10
     289.  00:4529  DD 36 0A 14             LD (ix+10), $14
     290.  00:452D                              
     291.  00:452D  2A DA C0                ld HL, (SPRITE_COLOR_REPLACE)
     292.  00:4530  11 30 00                ld DE,48
     293.  00:4533  19                      ADD HL, DE
     294.  00:4534  22 DC C0                ld (SPRITE_COLOR_REPLACE2), HL
     295.  00:4537                          ;ld a, 0
     296.  00:4537  C9                  	ret
     297.  00:4538                      
     298.  00:4538                      .NO_CHAR_PATTERN_CHANGE    
     299.  00:4538  C6 01                   ADD 1
     300.  00:453A  32 52 C0                LD (CHAR_MIN_STEP), A    
     301.  00:453D  C9                      ret
     302.  00:453E                      
     303.  00:453E                      NO_MOVEMENT:    
     304.  00:453E  C9                      ret
     305.  00:453F                      
     306.  00:453F                      MOVE_SHOOT:
     307.  00:453F  3A 51 C0                LD A,(CHAR_MAIN_SHOOT)    
     308.  00:4542  FE 01                   CP $01
     309.  00:4544  CA 6F 45                JP Z,.MOVE_SHOOT_LEFT
     310.  00:4547  FE 02                   CP $02
     311.  00:4549  CA 57 45                JP Z,.MOVE_SHOOT_RIGHT
     312.  00:454C  FE 03                   CP $03
     313.  00:454E  CA 5F 45                JP Z,.MOVE_SHOOT_UP    
     314.  00:4551  FE 04                   CP $04
     315.  00:4553  CA 67 45                JP Z,.MOVE_SHOOT_DOWN
     316.  00:4556  C9                      RET
     317.  00:4557                      
     318.  00:4557                      .MOVE_SHOOT_RIGHT:        
     319.  00:4557  3E 03                   LD A, MOV_SPEED_SHOOT
     320.  00:4559  32 54 C0            	LD (CHAR_SPEED_SHOOT), A    
     321.  00:455C  C3 74 45                JP .CHECK_SHOOT_DISTANCE
     322.  00:455F                      
     323.  00:455F                      .MOVE_SHOOT_UP:        
     324.  00:455F  3E FD                   LD A, -MOV_SPEED_SHOOT
     325.  00:4561  32 54 C0            	LD (CHAR_SPEED_SHOOT), A    
     326.  00:4564  C3 74 45                JP .CHECK_SHOOT_DISTANCE
     327.  00:4567                      
     328.  00:4567                      .MOVE_SHOOT_DOWN:
     329.  00:4567  3E 03                   LD A, MOV_SPEED_SHOOT
     330.  00:4569  32 54 C0            	LD (CHAR_SPEED_SHOOT), A    
     331.  00:456C  C3 74 45                JP .CHECK_SHOOT_DISTANCE
     332.  00:456F                      
     333.  00:456F                      .MOVE_SHOOT_LEFT:    
     334.  00:456F  3E FD                   LD A, -MOV_SPEED_SHOOT
     335.  00:4571  32 54 C0            	LD (CHAR_SPEED_SHOOT), A    
     336.  00:4574                      
     337.  00:4574                      .CHECK_SHOOT_DISTANCE:
     338.  00:4574                          ; Miramos si va a izq o der
     339.  00:4574  3A 51 C0                LD A,(CHAR_MAIN_SHOOT)    
     340.  00:4577  D6 03                   SUB 3   ; Restar 3 a 1 o 2 provoca salto de carro, si es 3 o 4 no provoca el salto de carro
     341.  00:4579  D2 89 45                JP NC,.ADD_SHOOT_Y
     342.  00:457C                          ; Movemos el disparo
     343.  00:457C  DD 7E 0D                LD A, (ix+SPR_SHOOT_P1+1)          ;cargamos la X del disparo
     344.  00:457F  2A 54 C0            	LD HL, (CHAR_SPEED_SHOOT)
     345.  00:4582  85                  	ADD L					; Actualizamos la posicion en base a la velocidad
     346.  00:4583  DD 77 0D                LD (ix+SPR_SHOOT_P1+1), A
     347.  00:4586  C3 93 45                JP .ADD_DISTANCE
     348.  00:4589                      .ADD_SHOOT_Y
     349.  00:4589                          ; Movemos el disparo
     350.  00:4589  DD 7E 0C                LD A, (ix+SPR_SHOOT_P1)          ;cargamos la X del disparo
     351.  00:458C  2A 54 C0            	LD HL, (CHAR_SPEED_SHOOT)
     352.  00:458F  85                  	ADD L					; Actualizamos la posicion en base a la velocidad
     353.  00:4590  DD 77 0C                LD (ix+SPR_SHOOT_P1), A
     354.  00:4593                      
     355.  00:4593                      .ADD_DISTANCE:
     356.  00:4593  3A 53 C0                LD A,(CHAR_DISTANCE_SHOOT)
     357.  00:4596  C6 03                   ADD MOV_SPEED_SHOOT
     358.  00:4598  32 53 C0                LD (CHAR_DISTANCE_SHOOT),A    
     359.  00:459B  FE 30                   CP MAX_DISTANCE_SHOOT
     360.  00:459D  C0                      RET NZ
     361.  00:459E                      
     362.  00:459E                      .HIDE_SHOOT:
     363.  00:459E  DD 36 0C D9             LD (ix+SPR_SHOOT_P1),217          ; Y = 217 para ocultar el Sprite
     364.  00:45A2  AF                      XOR A
     365.  00:45A3  32 51 C0                LD (CHAR_MAIN_SHOOT),A   ; Desactivo el estado disparando 
     366.  00:45A6  32 53 C0                LD (CHAR_DISTANCE_SHOOT),A
     367.  00:45A9  C9                      RET
     368.  00:45AA                      
     369.  00:45AA                      SHOOT_MAIN_CHAR:    
     370.  00:45AA  3A 51 C0                LD A, (CHAR_MAIN_SHOOT)
     371.  00:45AD  FE 01                   CP $01                  ; Si ya está disparando esperamos a que termine
     372.  00:45AF  C8                      RET Z;,MAIN_LOOP
     373.  00:45B0  FE 02                   CP $02                  ; Si ya está disparando esperamos a que termine
     374.  00:45B2  C8                      RET Z;,MAIN_LOOP
     375.  00:45B3  FE 03                   CP $03                  ; Si ya está disparando esperamos a que termine
     376.  00:45B5  C8                      RET Z;,MAIN_LOOP
     377.  00:45B6  FE 04                   CP $04                  ; Si ya está disparando esperamos a que termine
     378.  00:45B8  C8                      RET Z;,MAIN_LOOP
     379.  00:45B9                      
     380.  00:45B9  DD 36 0E 18             ld (ix+SPR_SHOOT_P1+2), SPR_SHOOT_P1_PTRN     ; Sprite Disparo
     381.  00:45BD                      
     382.  00:45BD  DD 7E 00                LD A, (ix)          
     383.  00:45C0  DD 77 0C                ld (ix+SPR_SHOOT_P1), A       ; Asignamos la Y del personaje    
     384.  00:45C3                      
     385.  00:45C3  3A 4F C0                LD A, (CHAR_DIR_MAIN)
     386.  00:45C6  FE 03                   CP $03
     387.  00:45C8  CA E4 45                JP Z,.SHOOT_RIGHT
     388.  00:45CB  FE 00                   CP $00
     389.  00:45CD  CA F3 45                JP Z,.SHOOT_UP
     390.  00:45D0  FE 01                   CP $01
     391.  00:45D2  CA 06 46                JP Z,.SHOOT_DOWN
     392.  00:45D5                          ; SHOOT LEFT
     393.  00:45D5  3E 01                   LD A,$01                ; SHOOT LEFT
     394.  00:45D7  32 51 C0                LD (CHAR_MAIN_SHOOT),A   ; Activo el estado disparando izquierda
     395.  00:45DA  DD 7E 01                LD A, (ix+1)			;cargamos la X - Si no es derecha, debe ser izquierda
     396.  00:45DD  21 F4 FF            	LD HL, -12
     397.  00:45E0  85                  	ADD L
     398.  00:45E1                          
     399.  00:45E1  C3 16 46                JP .CONTINUE
     400.  00:45E4                      
     401.  00:45E4                      .SHOOT_RIGHT:    
     402.  00:45E4  3E 02                   LD A,$02
     403.  00:45E6  32 51 C0                LD (CHAR_MAIN_SHOOT),A   ; Activo el estado disparando derecha
     404.  00:45E9                          
     405.  00:45E9  DD 7E 01                LD A, (ix+1)			;cargamos la X
     406.  00:45EC  21 0C 00            	LD HL, 12
     407.  00:45EF  85                  	ADD L
     408.  00:45F0  C3 16 46                JP .CONTINUE
     409.  00:45F3                      
     410.  00:45F3                      .SHOOT_UP:
     411.  00:45F3  3E 03                   LD A,$03
     412.  00:45F5  32 51 C0                LD (CHAR_MAIN_SHOOT),A   ; Activo el estado disparando arriba
     413.  00:45F8                          
     414.  00:45F8                          ; Sumamos el desplazamiento a la Y
     415.  00:45F8  DD 7E 0C                LD A, (ix+SPR_SHOOT_P1)
     416.  00:45FB  D6 10                   SUB 16
     417.  00:45FD  DD 77 0C                LD (ix+SPR_SHOOT_P1), A    
     418.  00:4600                          ;LD (ix+17), D
     419.  00:4600  DD 7E 01                LD A, (ix+1)			;cargamos la X    
     420.  00:4603  C3 16 46                JP .CONTINUE
     421.  00:4606                      
     422.  00:4606                      .SHOOT_DOWN
     423.  00:4606  3E 04               	LD A,$04
     424.  00:4608  32 51 C0                LD (CHAR_MAIN_SHOOT),A   ; Activo el estado disparando abajo
     425.  00:460B                          
     426.  00:460B                          ; Sumamos el desplazamiento a la Y
     427.  00:460B  DD 7E 0C                LD A, (ix+SPR_SHOOT_P1)
     428.  00:460E  C6 10                   ADD 16
     429.  00:4610  DD 77 0C                LD (ix+SPR_SHOOT_P1), A    
     430.  00:4613                          ;LD (ix+17), D
     431.  00:4613  DD 7E 01                LD A, (ix+1)			;cargamos la X    
     432.  00:4616                      
     433.  00:4616                      .CONTINUE:
     434.  00:4616                          ;ld (ix+16), B       ; Asignamos la Y del personaje
     435.  00:4616  DD 77 0D                ld (ix+SPR_SHOOT_P1+1), A       ; Asignamos la X del personaje + el desplazamiento        
     436.  00:4619                          ;jp MAIN_LOOP
     437.  00:4619  C9                      ret
     438.  00:461A                      
     439.  00:461A                      BOUNCE_ANDY:
     440.  00:461A  DD 7E 00                LD A, (ix)
     441.  00:461D  C6 10                   ADD 16
     442.  00:461F  DD 77 00                LD (ix), A
     443.  00:4622                      
     444.  00:4622  C9                      ret
      26   00:4623                      	include "include\VDP.asm"
       1.  00:4623                      ; Offset commands registers
       2.  00:4623  (00:0000)           VDP_SX		 EQU 0
       3.  00:4623  (00:0002)           VDP_SY		 EQU 2
       4.  00:4623  (00:0004)           VDP_DX		 EQU 4
       5.  00:4623  (00:0006)           VDP_DY		 EQU 6
       6.  00:4623  (00:0008)           VDP_NX		 EQU 8
       7.  00:4623  (00:000A)           VDP_NY		 EQU 10
       8.  00:4623  (00:000C)           VDP_COLOR	 EQU 12
       9.  00:4623  (00:000D)           VDP_ARGUMENT EQU 13
      10.  00:4623  (00:000E)           VDP_COMMAND	 EQU 14
      11.  00:4623                      
      12.  00:4623                      ; Offset for sprite commands from memory
      13.  00:4623                      
      14.  00:4623                      ; VDP Commands
      15.  00:4623  (00:00E0)           CMD_YMMM	equ	$e0
      16.  00:4623  (00:00D0)           CMD_HMMM	equ	$d0
      17.  00:4623  (00:00C0)           CMD_HMMV	equ	$c0
      18.  00:4623  (00:0098)           CMD_LMMM	equ	$98
      19.  00:4623  (00:00B0)           CMD_LMMC	equ $b0
      20.  00:4623  (00:0080)           CMD_LMMV    equ $80
      21.  00:4623                      
      22.  00:4623                      ; Logical operations
      23.  00:4623  (00:0000)           VDP_IMP		equ	%0000
      24.  00:4623  (00:0001)           VDP_AND		equ	%0001
      25.  00:4623  (00:0002)           VDP_OR		equ	%0010
      26.  00:4623  (00:0003)           VDP_XOR		equ	%0011
      27.  00:4623  (00:0004)           VDP_NOT		equ	%0100
      28.  00:4623  (00:0008)           VDP_TIMP	equ	%1000
      29.  00:4623  (00:0009)           VDP_TAND	equ	%1001
      30.  00:4623  (00:000A)           VDP_TOR		equ	%1010
      31.  00:4623  (00:000B)           VDP_TXOR	equ	%1011
      32.  00:4623  (00:000C)           VDP_TNOT	equ	%1100
      33.  00:4623                      
      34.  00:4623                      ; Tile
      35.  00:4623  (00:0010)           ENERGY_WIDTH		equ	16		; Blood drops
      36.  00:4623  (00:0020)           TILE_WIDTH			equ	32
      37.  00:4623  (00:0010)           TILE_HEIGHT			equ	16
      38.  00:4623  (00:0001)           TILES_PAGE			equ	1		; Page where tiles are stored
      39.  00:4623  (00:8000)           TILES_START_ADDR 	equ $8000  ; Tiles in ROM will be loaded at $8000, so we can load them to VRAM
      40.  00:4623  (00:0002)           BACK_BUFFER			equ 2		; we will draw to page 1
      41.  00:4623  (00:0000)           FRONT_BUFFER		equ 0		; then copy to page 0
      42.  00:4623                      
      43.  00:4623                      ; Dialog Box
      44.  00:4623  (00:0014)           DIAGBOX_HEIGHT	equ 20
      45.  00:4623  (00:00FF)           DIAGBOX_WIDTH	equ 255
      46.  00:4623                      
      47.  00:4623                      ;---------------------------------------------------------------------------
      48.  00:4623                      ; Init the RAM buffers used to draw a tile, energy and entities
      49.  00:4623                      ;---------------------------------------------------------------------------
      50.  00:4623                      initVDPBuffers:
      51.  00:4623  21 8C 48            		ld	hl,tileDatROM
      52.  00:4626  11 1C C0            		ld	de,tileDat
      53.  00:4629  01 0F 00            		ld	bc,15
      54.  00:462C  ED B0               		ldir	
      55.  00:462E                      
      56.  00:462E  21 9B 48            		ld	hl,energyDatROM
      57.  00:4631  11 2B C0            		ld	de,energyDat
      58.  00:4634  01 0F 00            		ld	bc,15
      59.  00:4637  ED B0               		ldir	
      60.  00:4639                      
      61.  00:4639  21 BF 4F            		ld 	hl, init_playerDAT
      62.  00:463C  11 00 C0            		ld de, ENTITY_PLAYER_POINTER
      63.  00:463F  01 09 00            		ld bc,ENTITY_SIZE
      64.  00:4642  ED B0               		ldir
      65.  00:4644                      
      66.  00:4644  21 C8 4F            		ld 	hl, enemy1_stg1DAT
      67.  00:4647                      		;add hl, 9			; ENTITY_SIZE
      68.  00:4647  11 09 C0            		ld de, ENTITY_ENEMY1_POINTER
      69.  00:464A  01 09 00            		ld bc,ENTITY_SIZE
      70.  00:464D  ED B0               		ldir
      71.  00:464F                      
      72.  00:464F  C9                  		ret
      73.  00:4650                      
      74.  00:4650                      print_strings_dialog_box:		
      75.  00:4650                      
      76.  00:4650  FD 66 01            	LD H, (IY+1)
      77.  00:4653  FD 6E 00            	LD L, (IY)
      78.  00:4656  11 00 61            	LD DE, FIRST_LINE_DLG_BOX	; Aquí irá el offset de la memoria del VDP en base a X, Y
      79.  00:4659  FD E5               	PUSH IY
      80.  00:465B  CD 7D 46                call print_string 
      81.  00:465E  FD E1                   POP IY
      82.  00:4660                      
      83.  00:4660  FD 66 03            	LD H, (IY+3)
      84.  00:4663  FD 6E 02            	LD L, (IY+2)
      85.  00:4666  11 00 65                LD DE, SEC_LINE_DLG_BOX	; Aquí irá el offset de la memoria del VDP en base a X, Y    
      86.  00:4669  FD E5               	PUSH IY
      87.  00:466B  CD 7D 46                call print_string 
      88.  00:466E  FD E1               	POP IY
      89.  00:4670                      
      90.  00:4670  FD 66 05                LD H, (IY+5)
      91.  00:4673  FD 6E 04            	LD L, (IY+4)
      92.  00:4676  11 00 69            	LD DE, THIRD_LINE_DLG_BOX	; Aquí irá el offset de la memoria del VDP en base a X, Y
      93.  00:4679  CD 7D 46                call print_string 
      94.  00:467C  C9                  	RET
      95.  00:467D                      
      96.  00:467D                      print_string:       
      97.  00:467D                      	
      98.  00:467D                      	;LD HL, string01
      99.  00:467D                      	;LD DE, 5CA8H	; Aquí irá el offset de la memoria del VDP en base a X, Y
     100.  00:467D                      .loop_str:
     101.  00:467D  7E                  	LD A, (HL)
     102.  00:467E  A7                  	AND A
     103.  00:467F  C8                  	RET Z
     104.  00:4680                      
     105.  00:4680  D6 20               	SUB 32
     106.  00:4682  CB 07               	RLC A
     107.  00:4684  CB 07               	RLC A	
     108.  00:4686                          
     109.  00:4686  06 00               	LD B, 0
     110.  00:4688  4F                  	LD C, A	; 4 * 32 = 124, ultimo caractec primera linea. 1024 - primer caracter segunda linea
     111.  00:4689                      				; 16 * 4 = 64 -> numero 0 - ASCII 48 - 32 = 16 * 4 = 64 offset número 0
     112.  00:4689                      				; Si #ASCII > 63 -> 2ª línea
     113.  00:4689                      				; segunda línea - ((#ASCII -32)*4)+1024
     114.  00:4689                      	
     115.  00:4689  7E                  	LD A, (HL)	; vuelvo a cargar el caracter para ver si está en la segunda línea (ascii > 63)
     116.  00:468A  E5                  	PUSH HL
     117.  00:468B  21 00 80            	LD HL, FONT
     118.  00:468E  09                  	ADD HL, BC
     119.  00:468F  FE 40               	CP 64
     120.  00:4691  DA 98 46            	JP C, .first_line_font
     121.  00:4694  01 00 04            	LD BC, 1024	; le sumamos 1024 para saltar a la segunda línea de la fuente
     122.  00:4697  09                  	ADD HL, BC
     123.  00:4698                      
     124.  00:4698                      .first_line_font:
     125.  00:4698  22 E0 C0                LD (BITMAP), HL
     126.  00:469B                          
     127.  00:469B  06 06               	LD B, :FONT
     128.  00:469D  D5                  	PUSH DE
     129.  00:469E  CD B1 46                call print_char
     130.  00:46A1  D1                      POP DE
     131.  00:46A2                      	
     132.  00:46A2  FD 21 04 00         	LD IY, 4
     133.  00:46A6  FD 19               	ADD IY, DE	; Le sumo 4 a DE para que empiece a escribir el next char 8 pixels a la derecha 
     134.  00:46A8  FD 54               	LD D, IYH
     135.  00:46AA  FD 5D               	LD E, IYL
     136.  00:46AC                      	
     137.  00:46AC                      
     138.  00:46AC  E1                  	POP HL
     139.  00:46AD  23                  	INC HL
     140.  00:46AE  18 CD               	JR .loop_str
     141.  00:46B0                          
     142.  00:46B0  C9                      RET
     143.  00:46B1                      
     144.  00:46B1                      print_char
     145.  00:46B1  AF                  		XOR A		
     146.  00:46B2  0E 00               		ld		c,0
     147.  00:46B4                      		;ld		de,0
     148.  00:46B4  ED 53 3F C0         		LD (CHR_ACR), DE
     149.  00:46B8  CD 31 42                	call	_vdpsetvramwr		
     150.  00:46BB  78                  		ld	a, b			; 1st page bitmap
     151.  00:46BC                      		;ld	d,a
     152.  00:46BC  32 00 70            		ld	(_bank2),a
     153.  00:46BF  2A E0 C0            		ld	hl,(BITMAP)		; Bitmap address
     154.  00:46C2  3E 08               		ld	a, 8			; #lineas del caracter
     155.  00:46C4  01 98 04            1:      ld	bc,0x498		; escribimos 4 bytes en el puerto 98h	
     156.  00:46C7  ED B3                       otir
     157.  00:46C9  01 7C 00                    LD BC, 124
     158.  00:46CC  09                          ADD HL, BC
     159.  00:46CD  F5                  		PUSH AF
     160.  00:46CE                      
     161.  00:46CE  FD 2A 3F C0         		LD IY, (CHR_ACR)
     162.  00:46D2  01 80 00            		LD BC, 128
     163.  00:46D5  FD 09               		ADD IY, BC
     164.  00:46D7  FD 54               		LD D, IYH
     165.  00:46D9  FD 5D               		LD E, IYL
     166.  00:46DB  A9                  		XOR C
     167.  00:46DC  ED 53 3F C0         		LD (CHR_ACR), DE
     168.  00:46E0  CD 31 42            		call	_vdpsetvramwr		
     169.  00:46E3  F1                  		POP AF		
     170.  00:46E4                      
     171.  00:46E4  3D                  		dec	a
     172.  00:46E5  20 DD               		jr	nz,1b		
     173.  00:46E7  C9                  		ret 
     174.  00:46E8                      
     175.  00:46E8                      CLEAR_DIALOG_BOX_v1:		
     176.  00:46E8  0E 00               		LD C,0
     177.  00:46EA  11 28 5C            		LD DE, 5C28H
     178.  00:46ED  ED 53 3F C0         		LD (CHR_ACR), DE
     179.  00:46F1  CD 31 42            		call _vdpsetvramwr
     180.  00:46F4  3E 18               		LD A, 24		; Borraremos 24 líneas de la pantalla
     181.  00:46F6  21 08 77            1:		LD HL, BLANK_DATA
     182.  00:46F9  01 98 54            		LD BC,0x5498	; Escribimos 84 bytes
     183.  00:46FC  ED B3               		OTIR
     184.  00:46FE                      
     185.  00:46FE  F5                  		PUSH AF
     186.  00:46FF  FD 2A 3F C0         		LD IY, (CHR_ACR)
     187.  00:4703  01 80 00            		LD BC, 128
     188.  00:4706  FD 09               		ADD IY, BC
     189.  00:4708  FD 54               		LD D, IYH
     190.  00:470A  FD 5D               		LD E, IYL
     191.  00:470C  0E 00               		LD C,0
     192.  00:470E  ED 53 3F C0         		LD (CHR_ACR), DE
     193.  00:4712  CD 31 42            		call	_vdpsetvramwr		
     194.  00:4715  F1                  		POP AF		
     195.  00:4716                      
     196.  00:4716  3D                  		DEC a
     197.  00:4717  20 DD               		JR NZ,1b
     198.  00:4719  C9                  		RET
     199.  00:471A                      
     200.  00:471A                      CLEAR_DIALOG_BOX_v2:
     201.  00:471A  0E 00               		LD C,0
     202.  00:471C  11 00 61            		LD DE, FIRST_LINE_DLG_BOX
     203.  00:471F  ED 53 3F C0         		LD (CHR_ACR), DE
     204.  00:4723  CD 31 42            		call _vdpsetvramwr
     205.  00:4726  3E 18               		LD A, 24		; Borraremos 24 líneas de la pantalla
     206.  00:4728  21 08 77            1:		LD HL, BLANK_DATA
     207.  00:472B  01 98 80            		LD BC,0x8098	; Escribimos 128 bytes, la linea entera
     208.  00:472E  ED B3               		OTIR
     209.  00:4730                      
     210.  00:4730  F5                  		PUSH AF
     211.  00:4731  FD 2A 3F C0         		LD IY, (CHR_ACR)
     212.  00:4735  01 80 00            		LD BC, 128
     213.  00:4738  FD 09               		ADD IY, BC
     214.  00:473A  FD 54               		LD D, IYH
     215.  00:473C  FD 5D               		LD E, IYL
     216.  00:473E  0E 00               		LD C,0
     217.  00:4740  ED 53 3F C0         		LD (CHR_ACR), DE
     218.  00:4744  CD 31 42            		call	_vdpsetvramwr		
     219.  00:4747  F1                  		POP AF		
     220.  00:4748                      
     221.  00:4748  3D                  		DEC a
     222.  00:4749  20 DD               		JR NZ,1b
     223.  00:474B  C9                  		RET
     224.  00:474C                      	
     225.  00:474C                      CLEAR_DIALOG_BOX:
     226.  00:474C  21 B9 48            		LD HL, DiagBoxToFrontkBufROM
     227.  00:474F  CD 95 47            		CALL VDPCMD
     228.  00:4752  C9                  		RET
     229.  00:4753                      
     230.  00:4753                      
     231.  00:4753                      ; -----------------------------------------------------------------------------------
     232.  00:4753                      ; https://www.msx.org/forum/development/msx-development/assembly-combined-basic
     233.  00:4753                      ; https://problemkaputt.de/portar.htm#vdpregisters20h2ehmsx2videocommandregisters
     234.  00:4753                      ; -----------------------------------------------------------------------------------
     235.  00:4753  (00:F3E0)           VDP_01: EQU   $F3E0
     236.  00:4753  (00:FFE7)           VDP_08: EQU   $FFE7
     237.  00:4753  (00:FFE8)           VDP_09: EQU   $FFE8
     238.  00:4753                      
     239.  00:4753                      SETPAG:				; SETPAG [A]
     240.  00:4753  0F                  	RRCA
     241.  00:4754  0F                  	RRCA
     242.  00:4755  0F                  	RRCA
     243.  00:4756  F6 1F               	OR	%00011111
     244.  00:4758  F3                  	DI
     245.  00:4759  D3 99               	OUT	($99),A
     246.  00:475B  3E 82               	LD	A,$80+2
     247.  00:475D  FB                  	EI
     248.  00:475E  D3 99               	OUT	($99),A
     249.  00:4760  C9                  	RET
     250.  00:4761                      
     251.  00:4761                      SET_WR:				; SET_WR [AHL]
     252.  00:4761  CB 04               	RLC	H
     253.  00:4763  17                  	RLA
     254.  00:4764  CB 04               	RLC	H
     255.  00:4766  17                  	RLA
     256.  00:4767  CB 3C               	SRL	H
     257.  00:4769  CB 3C               	SRL	H
     258.  00:476B  F3                  	DI
     259.  00:476C  D3 99               	OUT	($99),A
     260.  00:476E  3E 8E               	LD	A,$80+14
     261.  00:4770  D3 99               	OUT	($99),A
     262.  00:4772  7D                  	LD	A,L
     263.  00:4773                      ;	NOP				; MSX2+
     264.  00:4773  D3 99               	OUT	($99),A
     265.  00:4775  7C                  	LD	A,H
     266.  00:4776  F6 40               	OR	64
     267.  00:4778  D3 99               	OUT	($99),A
     268.  00:477A  FB                  	EI
     269.  00:477B  C9                  	RET
     270.  00:477C                      
     271.  00:477C                      SET_RD:				; SET_RD [AHL]
     272.  00:477C  CB 04               	RLC	H
     273.  00:477E  17                  	RLA
     274.  00:477F  CB 04               	RLC	H
     275.  00:4781  17                  	RLA
     276.  00:4782  CB 3C               	SRL	H
     277.  00:4784  CB 3C               	SRL	H
     278.  00:4786  F3                  	DI
     279.  00:4787  D3 99               	OUT	($99),A
     280.  00:4789  3E 8E               	LD	A,$80+14
     281.  00:478B  D3 99               	OUT	($99),A
     282.  00:478D  7D                  	LD	A,L
     283.  00:478E                      ;	NOP				; MSX2+
     284.  00:478E  D3 99               	OUT	($99),A
     285.  00:4790  7C                  	LD	A,H
     286.  00:4791                      ;	NOP				; MSX2+
     287.  00:4791  D3 99               	OUT	($99),A
     288.  00:4793  FB                  	EI
     289.  00:4794  C9                  	RET
     290.  00:4795                      
     291.  00:4795                      VDPCMD:				; VDPCMD [HL]->[CMDTABLE]
     292.  00:4795  CD A8 47            	CALL	WAITCE
     293.  00:4798  F3                  	DI
     294.  00:4799  3E 20               	LD	A,$20
     295.  00:479B  D3 99               	OUT	($99),A
     296.  00:479D  3E 91               	LD	A,$80+17
     297.  00:479F  D3 99               	OUT	($99),A
     298.  00:47A1  FB                  	EI
     299.  00:47A2  01 9B 0F            	LD	BC,$0F9B
     300.  00:47A5  ED B3               	OTIR
     301.  00:47A7  C9                  	RET
     302.  00:47A8                      
     303.  00:47A8                      WAITCE:				; WAITCE
     304.  00:47A8  3E 02               	LD	A,$02
     305.  00:47AA  F3                  	DI
     306.  00:47AB  D3 99               	OUT	($99),A
     307.  00:47AD  3E 8F               	LD	A,$80+15
     308.  00:47AF  D3 99               	OUT	($99),A
     309.  00:47B1  DB 99               	IN	A,($99)
     310.  00:47B3  1F                  	RRA
     311.  00:47B4  3E 00               	LD	A,$00
     312.  00:47B6  D3 99               	OUT	($99),A
     313.  00:47B8  3E 8F               	LD	A,$80+15
     314.  00:47BA  FB                  	EI
     315.  00:47BB  D3 99               	OUT	($99),A
     316.  00:47BD  38 E9               	JR	C,WAITCE
     317.  00:47BF  C9                  	RET
     318.  00:47C0                      
     319.  00:47C0                      ENASCR:				; Enable Screen
     320.  00:47C0  3A E0 F3            	LD	A,(VDP_01)
     321.  00:47C3  F6 40               	OR	%01000000
     322.  00:47C5  18 05               	JR	DISSCR.OUT
     323.  00:47C7                      
     324.  00:47C7                      DISSCR:				; Disable Screen
     325.  00:47C7  3A E0 F3            	LD	A,(VDP_01)
     326.  00:47CA  E6 BF               	AND	%10111111
     327.  00:47CC  32 E0 F3            .OUT:	LD	(VDP_01),A
     328.  00:47CF  F3                  	DI
     329.  00:47D0  D3 99               	OUT	($99),A
     330.  00:47D2  3E 81               	LD	A,$80+1
     331.  00:47D4  FB                  	EI
     332.  00:47D5  D3 99               	OUT	($99),A
     333.  00:47D7  C9                  	RET
     334.  00:47D8                      
     335.  00:47D8                      ENASPR:				; Enable Sprites
     336.  00:47D8  3A E7 FF            	LD	A,(VDP_08)
     337.  00:47DB  E6 FD               	AND	%11111101
     338.  00:47DD  18 05               	JR	DISSPR.OUT
     339.  00:47DF                      
     340.  00:47DF                      DISSPR:				; Disable Sprites
     341.  00:47DF  3A E7 FF            	LD	A,(VDP_08)
     342.  00:47E2  F6 02               	OR	%00000010
     343.  00:47E4  32 E7 FF            .OUT:	LD	(VDP_08),A
     344.  00:47E7  F3                  	DI
     345.  00:47E8  D3 99               	OUT	($99),A
     346.  00:47EA  3E 88               	LD	A,$80+8
     347.  00:47EC  FB                  	EI
     348.  00:47ED  D3 99               	OUT	($99),A
     349.  00:47EF  C9                  	RET
     350.  00:47F0                      
     351.  00:47F0                      LIN192:				; Set 192 lines
     352.  00:47F0  3A E8 FF            	LD	A,(VDP_09)
     353.  00:47F3  F6 80               	OR	%10000000
     354.  00:47F5  18 05               	JR	LIN212.OUT
     355.  00:47F7                      
     356.  00:47F7                      LIN212:				; Set 212 lines
     357.  00:47F7  3A E8 FF            	LD	A,(VDP_09)
     358.  00:47FA  E6 7F               	AND	%01111111
     359.  00:47FC  32 E8 FF            .OUT:	LD	(VDP_09),A
     360.  00:47FF  F3                  	DI
     361.  00:4800  D3 99               	OUT	($99),A
     362.  00:4802  3E 89               	LD	A,$80+9
     363.  00:4804  FB                  	EI
     364.  00:4805  D3 99               	OUT	($99),A
     365.  00:4807  C9                  	RET
     366.  00:4808                      ;
     367.  00:4808                      ; This lil' routine waits until the VDP is done copying.
     368.  00:4808                      ;
     369.  00:4808                      VDP_Ready:
     370.  00:4808  3E 02                   ld a,2
     371.  00:480A  F3                      di
     372.  00:480B  D3 99                   out (#99),a     ; select s#2
     373.  00:480D  3E 8F                   ld a,15+128
     374.  00:480F  D3 99                   out (#99),a
     375.  00:4811  DB 99                   in a,(#99)
     376.  00:4813  1F                      rra
     377.  00:4814  3E 00                   ld a,0          ; back to s#0, enable ints
     378.  00:4816  D3 99                   out (#99),a
     379.  00:4818  3E 8F                   ld a,15+128
     380.  00:481A  FB                      ei
     381.  00:481B  D3 99                   out (#99),a     ; loop if vdp not ready (CE)
     382.  00:481D  DA 08 48                jp c,VDP_Ready
     383.  00:4820  C9                      ret
     384.  00:4821                      
     385.  00:4821                      ;INPUT: A - ANDY'S MAX ENERGY
     386.  00:4821                      DRAW_ANDY_ENERGY:	
     387.  00:4821  3A 03 C0            	LD A, (ENTITY_PLAYER_POINTER+3)		; cargamos la energia de Andy
     388.  00:4824                      	;LD A, 24  ; TESTS
     389.  00:4824  11 00 00            	LD DE, 0	
     390.  00:4827  FD 21 2B C0         	LD IY, energyDat
     391.  00:482B                          ;LD (IY + VDP_SX), 128      ; SXL - Tile 4
     392.  00:482B                          ;LD (IY+VDP_SY), 0      ; SYL	
     393.  00:482B                          ;LD (IY + VDP_DX), A     ; DXL    
     394.  00:482B  FD 36 06 C2             LD (IY + VDP_DY), 194      ; DYL    
     395.  00:482F                      
     396.  00:482F                      .check_next_drop
     397.  00:482F  FE 04               	CP 4
     398.  00:4831  CA 4F 48            	JP Z, .draw_half_drop	
     399.  00:4834  FD 36 00 80         	LD (IY + VDP_SX), 128      ; SXL - Tile 4
     400.  00:4838  FD 72 04            	LD (IY + VDP_DX), D     ; DXL    
     401.  00:483B  F5                  	PUSH AF
     402.  00:483C  7A                  	LD A, D
     403.  00:483D  C6 10               	ADD A, 16
     404.  00:483F  57                  	LD D, A 	
     405.  00:4840  21 2B C0            	LD HL, energyDat
     406.  00:4843  CD 95 47                CALL VDPCMD
     407.  00:4846  1C                  	INC E
     408.  00:4847  F1                  	POP AF
     409.  00:4848  D6 08               	SUB 8
     410.  00:484A  C2 2F 48            	JP NZ, .check_next_drop
     411.  00:484D                      	;ret
     412.  00:484D  18 12               	JR .draw_empty_drops
     413.  00:484F                      
     414.  00:484F                      .draw_half_drop		
     415.  00:484F  FD 36 00 90         	LD (IY + VDP_SX), 144      ; SXL - Tile 5
     416.  00:4853  FD 72 04            	LD (IY + VDP_DX), D     ; DXL    
     417.  00:4856  7A                  	LD A, D
     418.  00:4857  C6 10               	ADD A, 16
     419.  00:4859  57                  	LD D, A 	
     420.  00:485A  21 2B C0                LD HL, energyDat
     421.  00:485D  CD 95 47                CALL VDPCMD
     422.  00:4860  1C                  	INC E
     423.  00:4861                      	;ret
     424.  00:4861                      
     425.  00:4861                      .draw_empty_drops
     426.  00:4861  21 10 40            		LD HL, ANDY_MAX_ENERGY
     427.  00:4864  ED 4B 1B C0         		LD BC, (current_level)
     428.  00:4868  06 00               		LD B,0
     429.  00:486A  09                  		ADD HL, BC
     430.  00:486B                      		;INC HL
     431.  00:486B  7E                  		LD A, (HL)
     432.  00:486C                      		;LD A, 24
     433.  00:486C  CB 3F CB 3F CB 3F   [3]     srl a       ;a/8
     434.  00:4872  93                  		sub e
     435.  00:4873  C8                  		ret Z		; si es cero volvemos, full energy
     436.  00:4874                      .loop
     437.  00:4874  FD 36 00 A0         		LD (IY + VDP_SX), 160      ; SXL - Tile 6
     438.  00:4878  FD 72 04            		LD (IY + VDP_DX), D     ; DXL    
     439.  00:487B  21 2B C0                	LD HL, energyDat
     440.  00:487E  F5                  		PUSH AF
     441.  00:487F  7A                  		LD A, D
     442.  00:4880  C6 10               		ADD A, 16
     443.  00:4882  57                  		LD D, A 			
     444.  00:4883  CD 95 47                	CALL VDPCMD
     445.  00:4886  F1                  		pop AF
     446.  00:4887  3D                  		dec a
     447.  00:4888  C2 74 48            		jp nz, .loop
     448.  00:488B  C9                  		ret
     449.  00:488C                      		;ld a, (ENTITY_PLAYER_POINTER+3)	; Andy's energy
      27   00:488C                          include "include\VDP_Data.asm"
       1.  00:488C                      ; VDP COMMAND PARAMETER
       2.  00:488C                      ;                               SXL SXH SYL SYH DXL DXH DYL DYH NXL NXH NYL NYH CLR ARG CMD
       3.  00:488C                      tileDatROM:                 db	0, 0, 0, TILES_PAGE, 0, 0, 0, FRONT_BUFFER, TILE_WIDTH, 0, TILE_HEIGHT, 0, 0, 0, CMD_HMMM
       3.  00:488C  00 00 00 01 00 00 00 00 20 00 10 00 00 00 D0 
       4.  00:489B                      energyDatROM:               db	0, 0, 0, TILES_PAGE, 0, 0, 0, FRONT_BUFFER, ENERGY_WIDTH, 0, TILE_HEIGHT, 0, 0, 0, CMD_HMMM
       4.  00:489B  00 00 00 01 00 00 00 00 10 00 10 00 00 00 D0 
       5.  00:48AA                      DiagBoxToBackBufROM:        db	0, 0, 192, FRONT_BUFFER, 0, 0, 192, BACK_BUFFER, DIAGBOX_WIDTH, 0, DIAGBOX_HEIGHT, 0, 0, 0, CMD_HMMM 
       5.  00:48AA  00 00 C0 00 00 00 C0 02 FF 00 14 00 00 00 D0 
       6.  00:48B9                      DiagBoxToFrontkBufROM:      db	0, 0, 192, BACK_BUFFER, 0, 0, 192, FRONT_BUFFER, DIAGBOX_WIDTH, 0, DIAGBOX_HEIGHT, 0, 0, 0, CMD_HMMM 
       6.  00:48B9  00 00 C0 02 00 00 C0 00 FF 00 14 00 00 00 D0 
       7.  00:48C8                      DiagBoxClearROM:            db	0, 0, 192, TILES_PAGE, 0, 0, 192, FRONT_BUFFER, DIAGBOX_WIDTH, 0, DIAGBOX_HEIGHT, 0, 0, 0, CMD_HMMM 
       7.  00:48C8  00 00 C0 01 00 00 C0 00 FF 00 14 00 00 00 D0 
      28   00:48D7                      ; SFX
      29   00:48D7                          include	"include\PT3_player.s"
       1.  00:48D7                      		; --- PT3 REPLAYER WORKING ON ROM ---
       2.  00:48D7                      		; --- Can be assembled with asMSX ---
       3.  00:48D7                      		; --- ROM version: MSX-KUN        ---
       4.  00:48D7                      		; --- asMSX version 2: SapphiRe   ---
       5.  00:48D7                      
       6.  00:48D7                      ; Based on MSX full version of PT3 by Dioniso
       7.  00:48D7                      ;
       8.  00:48D7                      ; This version of the replayer can be used with any note table
       9.  00:48D7                      ; This version also allows the use of PT3 commands
      10.  00:48D7                      ; First 99 bytes of each PT3 module should be stripped off
      11.  00:48D7                      ;
      12.  00:48D7                      ; PLAY and PSG WRITE routines seperated to allow independent calls
      13.  00:48D7                      ;
      14.  00:48D7                      ; ROM LENGTH: 1549 bytes
      15.  00:48D7                      ; RAM LENGTH:  576 bytes
      16.  00:48D7                      
      17.  00:48D7                      
      18.  00:48D7                      
      19.  00:48D7                      ;SJASM version by BTV 2016
      20.  00:48D7                      
      21.  00:48D7                      
      22.  00:48D7                      		; --- CONSTANT VALUES DEFINITION ---
      23.  00:48D7                      
      24.  00:48D7                      ;ChannelsVars
      25.  00:48D7                      ;struc	CHNPRM
      26.  00:48D7                      ;reset group
      27.  00:48D7  (00:0000)           CHNPRM_PsInOr	equ 0	;RESB 1
      28.  00:48D7  (00:0001)           CHNPRM_PsInSm	equ 1	;RESB 1
      29.  00:48D7  (00:0002)           CHNPRM_CrAmSl	equ 2	;RESB 1
      30.  00:48D7  (00:0003)           CHNPRM_CrNsSl	equ 3	;RESB 1
      31.  00:48D7  (00:0004)           CHNPRM_CrEnSl	equ 4	;RESB 1
      32.  00:48D7  (00:0005)           CHNPRM_TSlCnt	equ 5	;RESB 1
      33.  00:48D7  (00:0006)           CHNPRM_CrTnSl	equ 6	;RESW 1
      34.  00:48D7  (00:0008)           CHNPRM_TnAcc	equ 8	;RESW 1
      35.  00:48D7  (00:000A)           CHNPRM_COnOff	equ 10	;RESB 1
      36.  00:48D7                      ;reset group
      37.  00:48D7                      
      38.  00:48D7  (00:000B)           CHNPRM_OnOffD	equ 11	;RESB 1
      39.  00:48D7                      
      40.  00:48D7                      ;IX for PTDECOD here [+12]
      41.  00:48D7  (00:000C)           CHNPRM_OffOnD	equ 12	;RESB 1
      42.  00:48D7  (00:000D)           CHNPRM_OrnPtr	equ 13	;RESW 1
      43.  00:48D7  (00:000F)           CHNPRM_SamPtr	equ 15	;RESW 1
      44.  00:48D7  (00:0011)           CHNPRM_NNtSkp	equ 17	;RESB 1
      45.  00:48D7  (00:0012)           CHNPRM_Note	equ 18	;RESB 1
      46.  00:48D7  (00:0013)           CHNPRM_SlToNt	equ 19	;RESB 1
      47.  00:48D7  (00:0014)           CHNPRM_Env_En	equ 20	;RESB 1
      48.  00:48D7  (00:0015)           CHNPRM_Flags	equ 21	;RESB 1
      49.  00:48D7                       ;Enabled - 0,SimpleGliss - 2
      50.  00:48D7  (00:0016)           CHNPRM_TnSlDl	equ 22	;RESB 1
      51.  00:48D7  (00:0017)           CHNPRM_TSlStp	equ 23	;RESW 1
      52.  00:48D7  (00:0019)           CHNPRM_TnDelt	equ 25	;RESW 1
      53.  00:48D7  (00:001B)           CHNPRM_NtSkCn	equ 27	;RESB 1
      54.  00:48D7  (00:0017)           CHNPRM_Volume	equ 23	;RESB 1
      55.  00:48D7  (00:001D)           CHNPRM_Size	equ 29	;RESB 1
      56.  00:48D7                      ;endstruc
      57.  00:48D7                      
      58.  00:48D7                      ;struc	AR
      59.  00:48D7  (00:0000)           AR_TonA		equ 0	;RESW 1
      60.  00:48D7  (00:0002)           AR_TonB		equ 2	;RESW 1
      61.  00:48D7  (00:0004)           AR_TonC		equ 4	;RESW 1
      62.  00:48D7  (00:0006)           AR_Noise	equ 6	;RESB 1
      63.  00:48D7  (00:0007)           AR_Mixer	equ 7	;RESB 1
      64.  00:48D7  (00:0008)           AR_AmplA	equ 8	;RESB 1
      65.  00:48D7  (00:0009)           AR_AmplB	equ 9	;RESB 1
      66.  00:48D7  (00:000A)           AR_AmplC	equ 10	;RESB 1
      67.  00:48D7  (00:000B)           AR_Env		equ 11	;RESW 1
      68.  00:48D7  (00:000D)           AR_EnvTp	equ 13	;RESB 1
      69.  00:48D7                      ;endstruc
      70.  00:48D7                      
      71.  00:48D7                      		; --- CODE STARTS HERE ---
      72.  00:48D7                      
      73.  00:48D7  21 00 F0            CHECKLP:	LD	HL,PT3_SETUP
      74.  00:48DA  CB FE               		SET	7,[HL]
      75.  00:48DC  CB 46               		BIT	0,[HL]
      76.  00:48DE  C8                  		RET	Z
      77.  00:48DF  E1                  		POP	HL
      78.  00:48E0  21 79 F0            		LD	HL,DelyCnt
      79.  00:48E3  34                  		INC	[HL]
      80.  00:48E4  21 3D F0            		LD	HL,ChanA+CHNPRM_NtSkCn
      81.  00:48E7  34                  		INC	[HL]
      82.  00:48E8  AF                  PT3_MUTE:	XOR	A
      83.  00:48E9  67                  		LD	H,A
      84.  00:48EA  6F                  		LD	L,A
      85.  00:48EB  32 47 F1            		LD	[AYREGS+AR_AmplA],A
      86.  00:48EE  22 48 F1            		LD	[AYREGS+AR_AmplB],HL
      87.  00:48F1  C3 3A 4E            		JP	ROUT_A0
      88.  00:48F4                      
      89.  00:48F4                      PT3_INIT:	;HL - AddressOfModule - 100
      90.  00:48F4  22 00 F0            		LD [PT3_MODADDR],HL
      91.  00:48F7  E5                  		PUSH HL
      92.  00:48F8  11 64 00            		LD DE,100
      93.  00:48FB  19                  		ADD HL,DE
      94.  00:48FC  7E                  		LD A,[HL]
      95.  00:48FD  32 1B F0            		LD [PT3_Delay],A
      96.  00:4900  E5                  		PUSH HL
      97.  00:4901  DD E1               		POP IX
      98.  00:4903  19                  		ADD HL,DE
      99.  00:4904  22 02 F0            		LD [PT3_CrPsPtr],HL
     100.  00:4907  DD 5E 02            		LD E,[IX+102-100]
     101.  00:490A  19                  		ADD HL,DE
     102.  00:490B  23                  		INC HL
     103.  00:490C  22 17 F0            		LD [PT3_LPosPtr],HL
     104.  00:490F  D1                  		POP DE
     105.  00:4910  DD 6E 03            		LD L,[IX+103-100]
     106.  00:4913  DD 66 04            		LD H,[IX+104-100]
     107.  00:4916  19                  		ADD HL,DE
     108.  00:4917  22 19 F0            		LD [PT3_PatsPtr],HL
     109.  00:491A  21 A9 00            		LD HL,169
     110.  00:491D  19                  		ADD HL,DE
     111.  00:491E  22 06 F0            		LD [PT3_OrnPtrs],HL
     112.  00:4921  21 69 00            		LD HL,105
     113.  00:4924  19                  		ADD HL,DE
     114.  00:4925  22 04 F0            		LD [PT3_SAMPTRS],HL
     115.  00:4928  21 00 F0            		LD HL,PT3_SETUP
     116.  00:492B  CB BE               		RES 7,[HL]
     117.  00:492D                      
     118.  00:492D                      		; --- note table data depacker ---
     119.  00:492D                      		; Depacks first 12 tones of each tone table
     120.  00:492D                      
     121.  00:492D  11 AE 4E            		LD DE,T_PACK
     122.  00:4930  01 B0 F1            		LD BC,T1_+(2*49)-1
     123.  00:4933  1A                  .TP_0:		LD A,[DE]
     124.  00:4934  13                  		INC DE
     125.  00:4935  FE 1E               		CP 15*2
     126.  00:4937  30 06               		JR NC,.TP_1
     127.  00:4939  67                  		LD H,A
     128.  00:493A  1A                  		LD A,[DE]
     129.  00:493B  6F                  		LD L,A
     130.  00:493C  13                  		INC DE
     131.  00:493D  18 07               		JR .TP_2
     132.  00:493F  D5                  .TP_1:		PUSH DE
     133.  00:4940  16 00               		LD D,0
     134.  00:4942  5F                  		LD E,A
     135.  00:4943  19                  		ADD HL,DE
     136.  00:4944  19                  		ADD HL,DE
     137.  00:4945  D1                  		POP DE
     138.  00:4946  7C                  .TP_2:		LD A,H
     139.  00:4947  02                  		LD [BC],A
     140.  00:4948  0B                  		DEC BC
     141.  00:4949  7D                  		LD A,L
     142.  00:494A  02                  		LD [BC],A
     143.  00:494B  0B                  		DEC BC
     144.  00:494C  D6 F0               		SUB $F0
     145.  00:494E  20 E3               		JR NZ,.TP_0
     146.  00:4950                      
     147.  00:4950                      		; --- INITIALIZE PT3 VARIABLES ---
     148.  00:4950  21 22 F0            		LD HL,VARS
     149.  00:4953  77                  		LD [HL],A
     150.  00:4954  11 23 F0            		LD DE,VARS+1
     151.  00:4957  01 2C 01            		LD BC,VAR0END-VARS-1
     152.  00:495A  ED B0               		LDIR
     153.  00:495C                      
     154.  00:495C  3C                  		INC A
     155.  00:495D  32 79 F0            		LD [DelyCnt],A
     156.  00:4960  21 01 F0            		LD HL,$F001 ;H - CHNPRM_Volume, L - CHNPRM_NtSkCn
     157.  00:4963  22 3D F0            		LD [ChanA+CHNPRM_NtSkCn],HL
     158.  00:4966  22 5A F0            		LD [ChanB+CHNPRM_NtSkCn],HL
     159.  00:4969  22 77 F0            		LD [ChanC+CHNPRM_NtSkCn],HL
     160.  00:496C                      
     161.  00:496C  21 AA 4E            		LD HL,EMPTYSAMORN
     162.  00:496F  22 11 F0            		LD [PT3_AdInPtA],HL ;ptr to zero
     163.  00:4972  22 2F F0            		LD [ChanA+CHNPRM_OrnPtr],HL ;ornament 0 is "0,1,0"
     164.  00:4975  22 4C F0            		LD [ChanB+CHNPRM_OrnPtr],HL ;in all versions from
     165.  00:4978  22 69 F0            		LD [ChanC+CHNPRM_OrnPtr],HL ;3.xx to 3.6x and VTII
     166.  00:497B                      
     167.  00:497B  22 31 F0            		LD [ChanA+CHNPRM_SamPtr],HL ;S1 There is no default
     168.  00:497E  22 4E F0            		LD [ChanB+CHNPRM_SamPtr],HL ;S2 sample in PT3, so, you
     169.  00:4981  22 6B F0            		LD [ChanC+CHNPRM_SamPtr],HL ;S3 can comment S1,2,3; see
     170.  00:4984                      					    ;also EMPTYSAMORN comment
     171.  00:4984                      
     172.  00:4984                      		; --- NOTE TABLE CREATOR (c) Ivan Roshin, adapted by SapphiRe ---
     173.  00:4984  DD 7E FF            		LD A,[IX+99-100] ;TONE TABLE NUMBER
     174.  00:4987  17                  		RLA
     175.  00:4988  E6 07               		AND 7
     176.  00:498A  21 5A 4E            		LD HL,NT_DATA
     177.  00:498D  D5                  		PUSH DE
     178.  00:498E  50                  		LD D,B		; ld d,0 (bc is 0000 after LDIR)
     179.  00:498F  87                  		ADD A,A
     180.  00:4990  5F                  		LD E,A
     181.  00:4991  19                  		ADD HL,DE	; hl -> init of correct note table data
     182.  00:4992  5E                  		LD E,[HL]
     183.  00:4993  23                  		INC HL
     184.  00:4994  CB 3B               		SRL E
     185.  00:4996  9F                  		SBC A,A
     186.  00:4997  E6 A7               		AND $A7			;$00 (NOP) or $A7 (AND A)
     187.  00:4999  32 20 F0            		LD [PT3_NTL3],A		; CORRECT INSTRUCTION, DEPENDS OF SELECTED TABLE
     188.  00:499C  3E C9               		LD A,$C9		; RET CODE
     189.  00:499E  32 21 F0            		LD [PT3_NTL3+1],A	; RET PLACED
     190.  00:49A1  EB                  		EX DE,HL
     191.  00:49A2  C1                  		POP BC ;BC=T1_
     192.  00:49A3  09                  		ADD HL,BC
     193.  00:49A4                      
     194.  00:49A4  1A                  		LD A,[DE]                           
     195.  00:49A5                      
     196.  00:49A5  01 6A 4E            		LD BC,T_
     197.  00:49A8  81                  		ADD A,C
     198.  00:49A9  4F                  		LD C,A
     199.  00:49AA  88                  		ADC A,B
     200.  00:49AB                      
     201.  00:49AB  91                  		SUB C
     202.  00:49AC  47                  		LD B,A
     203.  00:49AD  C5                  		PUSH BC
     204.  00:49AE  11 7F F0            		LD DE,NT_
     205.  00:49B1  D5                  		PUSH DE
     206.  00:49B2                      
     207.  00:49B2  06 0C               		LD B,12
     208.  00:49B4  C5                  .L1:		PUSH BC
     209.  00:49B5  4E                  		LD C,[HL]
     210.  00:49B6  23                  		INC HL
     211.  00:49B7  E5                  		PUSH HL
     212.  00:49B8  46                  		LD B,[HL]
     213.  00:49B9                      
     214.  00:49B9  D5                  		PUSH DE
     215.  00:49BA  EB                  		EX DE,HL
     216.  00:49BB  11 17 00            		LD DE,23
     217.  00:49BE  DD 26 08            		db $DD,$26,$08	;LD XH,8
     218.  00:49C1                      
     219.  00:49C1  CB 38               .L2:		SRL B
     220.  00:49C3  CB 19               		RR C
     221.  00:49C5  CD 20 F0            .L3:		CALL PT3_NTL3	;AND A or NOP
     222.  00:49C8  79                  		LD A,C
     223.  00:49C9  8A                  		ADC A,D	;=ADC 0
     224.  00:49CA  77                  		LD [HL],A
     225.  00:49CB  23                  		INC HL
     226.  00:49CC  78                  		LD A,B
     227.  00:49CD  8A                  		ADC A,D
     228.  00:49CE  77                  		LD [HL],A
     229.  00:49CF  19                  		ADD HL,DE
     230.  00:49D0  DD 25               		db $DD,$25	;DEC XH
     231.  00:49D2  20 ED               		JR NZ,.L2
     232.  00:49D4                      
     233.  00:49D4  D1                  		POP DE
     234.  00:49D5  13                  		INC DE
     235.  00:49D6  13                  		INC DE
     236.  00:49D7  E1                  		POP HL
     237.  00:49D8  23                  		INC HL
     238.  00:49D9  C1                  		POP BC
     239.  00:49DA  10 D8               		DJNZ .L1
     240.  00:49DC                      
     241.  00:49DC  E1                  		POP HL
     242.  00:49DD  D1                  		POP DE
     243.  00:49DE                      
     244.  00:49DE  7B                  		LD A,E
     245.  00:49DF  D5                  		PUSH DE
     246.  00:49E0  11 76 4E            		LD DE,TCOLD_1
     247.  00:49E3  BB                  		CP E
     248.  00:49E4  D1                  		POP DE
     249.  00:49E5  20 05               		JR NZ,.CORR_1
     250.  00:49E7  3E FD               		LD A,$FD
     251.  00:49E9  32 AD F0            		LD [NT_+$2E],A
     252.  00:49EC                      
     253.  00:49EC  1A                  .CORR_1:	LD A,[DE]
     254.  00:49ED  A7                  		AND A
     255.  00:49EE  28 11               		JR Z,.TC_EXIT
     256.  00:49F0  1F                  		RRA
     257.  00:49F1  F5                  		PUSH AF
     258.  00:49F2  87                  		ADD A,A
     259.  00:49F3  4F                  		LD C,A
     260.  00:49F4  09                  		ADD HL,BC
     261.  00:49F5  F1                  		POP AF
     262.  00:49F6  30 02               		JR NC,.CORR_2
     263.  00:49F8  35                  		DEC [HL]
     264.  00:49F9  35                  		DEC [HL]
     265.  00:49FA  34                  .CORR_2:	INC [HL]
     266.  00:49FB  A7                  		AND A
     267.  00:49FC  ED 42               		SBC HL,BC
     268.  00:49FE  13                  		INC DE
     269.  00:49FF  18 EB               		JR .CORR_1
     270.  00:4A01                      
     271.  00:4A01                      .TC_EXIT:	;POP AF
     272.  00:4A01                      
     273.  00:4A01                      		; --- CREATE PT3 VOLUME TABLE (c) Ivan Roshin, adapted by SapphiRe ---
     274.  00:4A01  21 11 00            		ld	hl,$11
     275.  00:4A04  54                  		ld	d,h
     276.  00:4A05  5C                  		ld	e,h
     277.  00:4A06  DD 21 4F F1         		ld	IX,VT_+16
     278.  00:4A0A  06 0F               		ld	b,15
     279.  00:4A0C  E5                  .INITV1:	push	hl
     280.  00:4A0D  19                  		add	hl,de
     281.  00:4A0E  EB                  		ex	de,hl
     282.  00:4A0F  ED 62               		sbc	hl,hl
     283.  00:4A11  48                  		ld	c,b
     284.  00:4A12  06 10               		ld	b,16
     285.  00:4A14  7D                  .INITV2:	ld	a,l
     286.  00:4A15  17                  		rla
     287.  00:4A16  7C                  		ld	a,h
     288.  00:4A17  CE 00               		adc	a,0
     289.  00:4A19  DD 77 00            		ld	[ix],a
     290.  00:4A1C  DD 23               		inc	ix
     291.  00:4A1E  19                  		add	hl,de
     292.  00:4A1F  10 F3               		djnz	.INITV2
     293.  00:4A21  E1                  		pop	hl
     294.  00:4A22  7B                  		ld	a,e
     295.  00:4A23  FE 77               		cp	$77
     296.  00:4A25  20 01               		jr	nz,.INITV3
     297.  00:4A27  1C                  		inc	e
     298.  00:4A28  41                  .INITV3:	ld	b,c
     299.  00:4A29  10 E1               		djnz	.INITV1
     300.  00:4A2B                      
     301.  00:4A2B  C9                  		RET
     302.  00:4A2C                      
     303.  00:4A2C                      		;pattern decoder
     304.  00:4A2C  DD 36 08 00         PD_OrSm:	LD [IX+(CHNPRM_Env_En-12)],0
     305.  00:4A30  CD B6 4B            		CALL SETORN
     306.  00:4A33  0A                  		LD A,[BC]
     307.  00:4A34  03                  		INC BC
     308.  00:4A35  0F                  		RRCA
     309.  00:4A36                      
     310.  00:4A36  87                  PD_SAM:		ADD A,A
     311.  00:4A37  5F                  PD_SAM_:	LD E,A
     312.  00:4A38  16 00               		LD D,0
     313.  00:4A3A  2A 04 F0            		LD HL,[PT3_SAMPTRS]
     314.  00:4A3D  19                  		ADD HL,DE
     315.  00:4A3E  5E                  		LD E,[HL]
     316.  00:4A3F  23                  		INC HL
     317.  00:4A40  56                  		LD D,[HL]
     318.  00:4A41  2A 00 F0            		LD HL,[PT3_MODADDR]
     319.  00:4A44  19                  		ADD HL,DE
     320.  00:4A45  DD 75 03            		LD [IX+(CHNPRM_SamPtr-12)],L
     321.  00:4A48  DD 74 04            		LD [IX+(CHNPRM_SamPtr+1-12)],H
     322.  00:4A4B  18 41               		JR PD_LOOP
     323.  00:4A4D                      
     324.  00:4A4D  07                  PD_VOL:		RLCA
     325.  00:4A4E  07                  		RLCA
     326.  00:4A4F  07                  		RLCA
     327.  00:4A50  07                  		RLCA
     328.  00:4A51  DD 77 0B            		LD [IX+(CHNPRM_Volume-12)],A
     329.  00:4A54  18 3B               		JR PD_LP2
     330.  00:4A56                      	
     331.  00:4A56  DD 77 08            PD_EOff:	LD [IX+(CHNPRM_Env_En-12)],A
     332.  00:4A59  DD 77 F4            		LD [IX+(CHNPRM_PsInOr-12)],A
     333.  00:4A5C  18 33               		JR PD_LP2
     334.  00:4A5E                      
     335.  00:4A5E  3D                  PD_SorE:	DEC A
     336.  00:4A5F  20 07               		JR NZ,PD_ENV
     337.  00:4A61  0A                  		LD A,[BC]
     338.  00:4A62  03                  		INC BC
     339.  00:4A63  DD 77 05            		LD [IX+(CHNPRM_NNtSkp-12)],A
     340.  00:4A66  18 29               		JR PD_LP2
     341.  00:4A68                      
     342.  00:4A68  CD 9A 4B            PD_ENV:		CALL SETENV
     343.  00:4A6B  18 24               		JR PD_LP2
     344.  00:4A6D                      
     345.  00:4A6D  CD B6 4B            PD_ORN:		CALL SETORN
     346.  00:4A70  18 1C               		JR PD_LOOP
     347.  00:4A72                             
     348.  00:4A72  DD 77 08            PD_ESAM:	LD [IX+(CHNPRM_Env_En-12)],A
     349.  00:4A75  DD 77 F4            		LD [IX+(CHNPRM_PsInOr-12)],A
     350.  00:4A78  C4 9A 4B            		CALL NZ,SETENV
     351.  00:4A7B  0A                  		LD A,[BC]
     352.  00:4A7C  03                  		INC BC
     353.  00:4A7D  18 B8               		JR PD_SAM_
     354.  00:4A7F                      
     355.  00:4A7F  DD 7E 06            PTDECOD:	LD A,[IX+(CHNPRM_Note-12)]
     356.  00:4A82  32 0E F0            		LD [PT3_PrNote],A
     357.  00:4A85  DD 6E FA            		LD L,[IX+(CHNPRM_CrTnSl-12)]
     358.  00:4A88  DD 66 FB            		LD H,[IX+(CHNPRM_CrTnSl+1-12)]
     359.  00:4A8B  22 0F F0            		LD [PT3_PrSlide],HL
     360.  00:4A8E                      
     361.  00:4A8E  11 10 20            PD_LOOP:	LD DE,$2010
     362.  00:4A91  0A                  PD_LP2:		LD A,[BC]
     363.  00:4A92  03                  		INC BC
     364.  00:4A93  83                  		ADD A,E
     365.  00:4A94  38 96               		JR C,PD_OrSm
     366.  00:4A96  82                  		ADD A,D
     367.  00:4A97  28 4A               		JR Z,PD_FIN
     368.  00:4A99  38 9B               		JR C,PD_SAM
     369.  00:4A9B  83                  		ADD A,E
     370.  00:4A9C  28 25               		JR Z,PD_REL
     371.  00:4A9E  38 AD               		JR C,PD_VOL
     372.  00:4AA0  83                  		ADD A,E
     373.  00:4AA1  28 B3               		JR Z,PD_EOff
     374.  00:4AA3  38 B9               		JR C,PD_SorE
     375.  00:4AA5  C6 60               		ADD A,96
     376.  00:4AA7  38 20               		JR C,PD_NOTE
     377.  00:4AA9  83                  		ADD A,E
     378.  00:4AAA  38 C1               		JR C,PD_ORN
     379.  00:4AAC  82                  		ADD A,D
     380.  00:4AAD  38 0F               		JR C,PD_NOIS
     381.  00:4AAF  83                  		ADD A,E
     382.  00:4AB0  38 C0               		JR C,PD_ESAM
     383.  00:4AB2  87                  		ADD A,A
     384.  00:4AB3  5F                  		LD E,A
     385.  00:4AB4  21 EF 2A            		LD HL,(SPCCOMS+$DF20) % 65536	; Adapted from original Speccy version (saves 6 bytes)
     386.  00:4AB7  19                  		ADD HL,DE
     387.  00:4AB8  5E                  		LD E,[HL]
     388.  00:4AB9  23                  		INC HL
     389.  00:4ABA  56                  		LD D,[HL]
     390.  00:4ABB  D5                  		PUSH DE
     391.  00:4ABC  18 D0               		JR PD_LOOP
     392.  00:4ABE                      
     393.  00:4ABE  32 7D F0            PD_NOIS:	LD [Ns_Base],A
     394.  00:4AC1  18 CE               		JR PD_LP2
     395.  00:4AC3                      
     396.  00:4AC3  DD CB 09 86         PD_REL:		RES 0,[IX+(CHNPRM_Flags-12)]
     397.  00:4AC7  18 08               		JR PD_RES
     398.  00:4AC9                      	
     399.  00:4AC9  DD 77 06            PD_NOTE:	LD [IX+(CHNPRM_Note-12)],A
     400.  00:4ACC  DD CB 09 C6         		SET 0,[IX+(CHNPRM_Flags-12)]
     401.  00:4AD0  AF                  		XOR A
     402.  00:4AD1                      
     403.  00:4AD1  ED 73 08 F0         PD_RES:		LD [PT3_PDSP],SP
     404.  00:4AD5  DD F9               		LD SP,IX
     405.  00:4AD7  67                  		LD H,A
     406.  00:4AD8  6F                  		LD L,A
     407.  00:4AD9  E5                  		PUSH HL
     408.  00:4ADA  E5                  		PUSH HL
     409.  00:4ADB  E5                  		PUSH HL
     410.  00:4ADC  E5                  		PUSH HL
     411.  00:4ADD  E5                  		PUSH HL
     412.  00:4ADE  E5                  		PUSH HL
     413.  00:4ADF  ED 7B 08 F0         		LD SP,[PT3_PDSP]
     414.  00:4AE3                      
     415.  00:4AE3  DD 7E 05            PD_FIN:		LD A,[IX+(CHNPRM_NNtSkp-12)]
     416.  00:4AE6  DD 77 0F            		LD [IX+(CHNPRM_NtSkCn-12)],A
     417.  00:4AE9  C9                  		RET
     418.  00:4AEA                      
     419.  00:4AEA  DD CB 09 96         C_PORTM:	RES 2,[IX+(CHNPRM_Flags-12)]
     420.  00:4AEE  0A                  		LD A,[BC]
     421.  00:4AEF  03                  		INC BC
     422.  00:4AF0                      		;SKIP PRECALCULATED TONE DELTA [BECAUSE
     423.  00:4AF0                      		;CANNOT BE RIGHT AFTER PT3 COMPILATION]
     424.  00:4AF0  03                  		INC BC
     425.  00:4AF1  03                  		INC BC
     426.  00:4AF2  DD 77 0A            		LD [IX+(CHNPRM_TnSlDl-12)],A
     427.  00:4AF5  DD 77 F9            		LD [IX+(CHNPRM_TSlCnt-12)],A
     428.  00:4AF8  11 7F F0            		LD DE,NT_
     429.  00:4AFB  DD 7E 06            		LD A,[IX+(CHNPRM_Note-12)]
     430.  00:4AFE  DD 77 07            		LD [IX+(CHNPRM_SlToNt-12)],A
     431.  00:4B01  87                  		ADD A,A
     432.  00:4B02  6F                  		LD L,A
     433.  00:4B03  26 00               		LD H,0
     434.  00:4B05  19                  		ADD HL,DE
     435.  00:4B06  7E                  		LD A,[HL]
     436.  00:4B07  23                  		INC HL
     437.  00:4B08  66                  		LD H,[HL]
     438.  00:4B09  6F                  		LD L,A
     439.  00:4B0A  E5                  		PUSH HL
     440.  00:4B0B  3A 0E F0            		LD A,[PT3_PrNote]
     441.  00:4B0E  DD 77 06            		LD [IX+(CHNPRM_Note-12)],A
     442.  00:4B11  87                  		ADD A,A
     443.  00:4B12  6F                  		LD L,A
     444.  00:4B13  26 00               		LD H,0
     445.  00:4B15  19                  		ADD HL,DE
     446.  00:4B16  5E                  		LD E,[HL]
     447.  00:4B17  23                  		INC HL
     448.  00:4B18  56                  		LD D,[HL]
     449.  00:4B19  E1                  		POP HL
     450.  00:4B1A  ED 52               		SBC HL,DE
     451.  00:4B1C  DD 75 0D            		LD [IX+(CHNPRM_TnDelt-12)],L
     452.  00:4B1F  DD 74 0E            		LD [IX+(CHNPRM_TnDelt+1-12)],H
     453.  00:4B22  ED 5B 0F F0         		LD DE,[PT3_PrSlide]
     454.  00:4B26  DD 73 FA            		LD [IX+(CHNPRM_CrTnSl-12)],E
     455.  00:4B29  DD 72 FB            		LD [IX+(CHNPRM_CrTnSl+1-12)],D
     456.  00:4B2C  0A                  		LD A,[BC] ;SIGNED TONE STEP
     457.  00:4B2D  03                  		INC BC
     458.  00:4B2E  08                  		EX AF,AF'
     459.  00:4B2F  0A                  		LD A,[BC]
     460.  00:4B30  03                  		INC BC
     461.  00:4B31  A7                  		AND A
     462.  00:4B32  28 01               		JR Z,.NOSIG
     463.  00:4B34  EB                  		EX DE,HL
     464.  00:4B35  ED 52               .NOSIG:	SBC HL,DE
     465.  00:4B37  F2 3F 4B            		JP P,SET_STP
     466.  00:4B3A  2F                  		CPL
     467.  00:4B3B  08                  		EX AF,AF'
     468.  00:4B3C  ED 44               		NEG
     469.  00:4B3E  08                  		EX AF,AF'
     470.  00:4B3F  DD 77 0C            SET_STP:	LD [IX+(CHNPRM_TSlStp+1-12)],A
     471.  00:4B42  08                  		EX AF,AF'
     472.  00:4B43  DD 77 0B            		LD [IX+(CHNPRM_TSlStp-12)],A
     473.  00:4B46  DD 36 FE 00         		LD [IX+(CHNPRM_COnOff-12)],0
     474.  00:4B4A  C9                  		RET
     475.  00:4B4B                      
     476.  00:4B4B  DD CB 09 D6         C_GLISS:	SET 2,[IX+(CHNPRM_Flags-12)]
     477.  00:4B4F  0A                  		LD A,[BC]
     478.  00:4B50  03                  		INC BC
     479.  00:4B51  DD 77 0A            		LD [IX+(CHNPRM_TnSlDl-12)],A
     480.  00:4B54  DD 77 F9            		LD [IX+(CHNPRM_TSlCnt-12)],A
     481.  00:4B57  0A                  		LD A,[BC]
     482.  00:4B58  03                  		INC BC
     483.  00:4B59  08                  		EX AF,AF'
     484.  00:4B5A  0A                  		LD A,[BC]
     485.  00:4B5B  03                  		INC BC
     486.  00:4B5C  18 E1               		JR SET_STP
     487.  00:4B5E                      
     488.  00:4B5E  0A                  C_SMPOS:	LD A,[BC]
     489.  00:4B5F  03                  		INC BC
     490.  00:4B60  DD 77 F5            		LD [IX+(CHNPRM_PsInSm-12)],A
     491.  00:4B63  C9                  		RET
     492.  00:4B64                      
     493.  00:4B64  0A                  C_ORPOS:	LD A,[BC]
     494.  00:4B65  03                  		INC BC
     495.  00:4B66  DD 77 F4            		LD [IX+(CHNPRM_PsInOr-12)],A
     496.  00:4B69  C9                  		RET
     497.  00:4B6A                      
     498.  00:4B6A  0A                  C_VIBRT:	LD A,[BC]
     499.  00:4B6B  03                  		INC BC
     500.  00:4B6C  DD 77 FF            		LD [IX+(CHNPRM_OnOffD-12)],A
     501.  00:4B6F  DD 77 FE            		LD [IX+(CHNPRM_COnOff-12)],A
     502.  00:4B72  0A                  		LD A,[BC]
     503.  00:4B73  03                  		INC BC
     504.  00:4B74  DD 77 00            		LD [IX+(CHNPRM_OffOnD-12)],A
     505.  00:4B77  AF                  		XOR A
     506.  00:4B78  DD 77 F9            		LD [IX+(CHNPRM_TSlCnt-12)],A
     507.  00:4B7B  DD 77 FA            		LD [IX+(CHNPRM_CrTnSl-12)],A
     508.  00:4B7E  DD 77 FB            		LD [IX+(CHNPRM_CrTnSl+1-12)],A
     509.  00:4B81  C9                  		RET
     510.  00:4B82                      
     511.  00:4B82  0A                  C_ENGLS:	LD A,[BC]
     512.  00:4B83  03                  		INC BC
     513.  00:4B84  32 1D F0            		LD [PT3_Env_Del],A
     514.  00:4B87  32 7C F0            		LD [CurEDel],A
     515.  00:4B8A  0A                  		LD A,[BC]
     516.  00:4B8B  03                  		INC BC
     517.  00:4B8C  6F                  		LD L,A
     518.  00:4B8D  0A                  		LD A,[BC]
     519.  00:4B8E  03                  		INC BC
     520.  00:4B8F  67                  		LD H,A
     521.  00:4B90  22 1E F0            		LD [PT3_ESldAdd],HL
     522.  00:4B93  C9                  		RET
     523.  00:4B94                      
     524.  00:4B94  0A                  C_DELAY:	LD A,[BC]
     525.  00:4B95  03                  		INC BC
     526.  00:4B96  32 1B F0            		LD [PT3_Delay],A
     527.  00:4B99  C9                  		RET
     528.  00:4B9A                      	
     529.  00:4B9A  DD 73 08            SETENV:		LD [IX+(CHNPRM_Env_En-12)],E
     530.  00:4B9D  32 4C F1            		LD [AYREGS+AR_EnvTp],A
     531.  00:4BA0  0A                  		LD A,[BC]
     532.  00:4BA1  03                  		INC BC
     533.  00:4BA2  67                  		LD H,A
     534.  00:4BA3  0A                  		LD A,[BC]
     535.  00:4BA4  03                  		INC BC
     536.  00:4BA5  6F                  		LD L,A
     537.  00:4BA6  22 4D F1            		LD [EnvBase],HL
     538.  00:4BA9  AF                  		XOR A
     539.  00:4BAA  DD 77 F4            		LD [IX+(CHNPRM_PsInOr-12)],A
     540.  00:4BAD  32 7C F0            		LD [CurEDel],A
     541.  00:4BB0  67                  		LD H,A
     542.  00:4BB1  6F                  		LD L,A
     543.  00:4BB2  22 7A F0            		LD [CurESld],HL
     544.  00:4BB5  C9                  C_NOP:		RET
     545.  00:4BB6                      
     546.  00:4BB6  87                  SETORN:		ADD A,A
     547.  00:4BB7  5F                  		LD E,A
     548.  00:4BB8  16 00               		LD D,0
     549.  00:4BBA  DD 72 F4            		LD [IX+(CHNPRM_PsInOr-12)],D
     550.  00:4BBD  2A 06 F0            		LD HL,[PT3_OrnPtrs]
     551.  00:4BC0  19                  		ADD HL,DE
     552.  00:4BC1  5E                  		LD E,[HL]
     553.  00:4BC2  23                  		INC HL
     554.  00:4BC3  56                  		LD D,[HL]
     555.  00:4BC4  2A 00 F0            		LD HL,[PT3_MODADDR]
     556.  00:4BC7  19                  		ADD HL,DE
     557.  00:4BC8  DD 75 01            		LD [IX+(CHNPRM_OrnPtr-12)],L
     558.  00:4BCB  DD 74 02            		LD [IX+(CHNPRM_OrnPtr+1-12)],H
     559.  00:4BCE  C9                  		RET
     560.  00:4BCF                      
     561.  00:4BCF                      		;ALL 16 ADDRESSES TO PROTECT FROM BROKEN PT3 MODULES
     562.  00:4BCF  B5 4B               SPCCOMS:	dw C_NOP
     563.  00:4BD1  4B 4B               		dw C_GLISS
     564.  00:4BD3  EA 4A               		dw C_PORTM
     565.  00:4BD5  5E 4B               		dw C_SMPOS
     566.  00:4BD7  64 4B               		dw C_ORPOS
     567.  00:4BD9  6A 4B               		dw C_VIBRT
     568.  00:4BDB  B5 4B               		dw C_NOP
     569.  00:4BDD  B5 4B               		dw C_NOP
     570.  00:4BDF  82 4B               		dw C_ENGLS
     571.  00:4BE1  94 4B               		dw C_DELAY
     572.  00:4BE3  B5 4B               		dw C_NOP
     573.  00:4BE5  B5 4B               		dw C_NOP
     574.  00:4BE7  B5 4B               		dw C_NOP
     575.  00:4BE9  B5 4B               		dw C_NOP
     576.  00:4BEB  B5 4B               		dw C_NOP
     577.  00:4BED  B5 4B               		dw C_NOP
     578.  00:4BEF                      
     579.  00:4BEF  AF                  CHREGS:		XOR A
     580.  00:4BF0  32 49 F1            		LD [AYREGS+AR_AmplC],A
     581.  00:4BF3  DD CB 15 46         		BIT 0,[IX+CHNPRM_Flags]
     582.  00:4BF7  E5                  		PUSH HL
     583.  00:4BF8  CA 1E 4D            		JP Z,.CH_EXIT
     584.  00:4BFB  ED 73 0A F0         		LD [PT3_CSP],SP
     585.  00:4BFF  DD 6E 0D            		LD L,[IX+CHNPRM_OrnPtr]
     586.  00:4C02  DD 66 0E            		LD H,[IX+CHNPRM_OrnPtr+1]
     587.  00:4C05  F9                  		LD SP,HL
     588.  00:4C06  D1                  		POP DE
     589.  00:4C07  67                  		LD H,A
     590.  00:4C08  DD 7E 00            		LD A,[IX+CHNPRM_PsInOr]
     591.  00:4C0B  6F                  		LD L,A
     592.  00:4C0C  39                  		ADD HL,SP
     593.  00:4C0D  3C                  		INC A
     594.  00:4C0E  BA                  		CP D
     595.  00:4C0F  38 01               		JR C,.CH_ORPS
     596.  00:4C11  7B                  		LD A,E
     597.  00:4C12  DD 77 00            .CH_ORPS:	LD [IX+CHNPRM_PsInOr],A
     598.  00:4C15  DD 7E 12            		LD A,[IX+CHNPRM_Note]
     599.  00:4C18  86                  		ADD A,[HL]
     600.  00:4C19  F2 1D 4C            		JP P,.CH_NTP
     601.  00:4C1C  AF                  		XOR A
     602.  00:4C1D  FE 60               .CH_NTP:	CP 96
     603.  00:4C1F  38 02               		JR C,.CH_NOK
     604.  00:4C21  3E 5F               		LD A,95
     605.  00:4C23  87                  .CH_NOK:	ADD A,A
     606.  00:4C24  08                  		EX AF,AF'
     607.  00:4C25  DD 6E 0F            		LD L,[IX+CHNPRM_SamPtr]
     608.  00:4C28  DD 66 10            		LD H,[IX+CHNPRM_SamPtr+1]
     609.  00:4C2B  F9                  		LD SP,HL
     610.  00:4C2C  D1                  		POP DE
     611.  00:4C2D  26 00               		LD H,0
     612.  00:4C2F  DD 7E 01            		LD A,[IX+CHNPRM_PsInSm]
     613.  00:4C32  47                  		LD B,A
     614.  00:4C33  87                  		ADD A,A
     615.  00:4C34  87                  		ADD A,A
     616.  00:4C35  6F                  		LD L,A
     617.  00:4C36  39                  		ADD HL,SP
     618.  00:4C37  F9                  		LD SP,HL
     619.  00:4C38  78                  		LD A,B
     620.  00:4C39  3C                  		INC A
     621.  00:4C3A  BA                  		CP D
     622.  00:4C3B  38 01               		JR C,.CH_SMPS
     623.  00:4C3D  7B                  		LD A,E
     624.  00:4C3E  DD 77 01            .CH_SMPS:	LD [IX+CHNPRM_PsInSm],A
     625.  00:4C41  C1                  		POP BC
     626.  00:4C42  E1                  		POP HL
     627.  00:4C43  DD 5E 08            		LD E,[IX+CHNPRM_TnAcc]
     628.  00:4C46  DD 56 09            		LD D,[IX+CHNPRM_TnAcc+1]
     629.  00:4C49  19                  		ADD HL,DE
     630.  00:4C4A  CB 70               		BIT 6,B
     631.  00:4C4C  28 06               		JR Z,.CH_NOAC
     632.  00:4C4E  DD 75 08            		LD [IX+CHNPRM_TnAcc],L
     633.  00:4C51  DD 74 09            		LD [IX+CHNPRM_TnAcc+1],H
     634.  00:4C54  EB                  .CH_NOAC:	EX DE,HL
     635.  00:4C55  08                  		EX AF,AF'
     636.  00:4C56  6F                  		LD L,A
     637.  00:4C57  26 00               		LD H,0
     638.  00:4C59  31 7F F0            		LD SP,NT_
     639.  00:4C5C  39                  		ADD HL,SP
     640.  00:4C5D  F9                  		LD SP,HL
     641.  00:4C5E  E1                  		POP HL
     642.  00:4C5F  19                  		ADD HL,DE
     643.  00:4C60  DD 5E 06            		LD E,[IX+CHNPRM_CrTnSl]
     644.  00:4C63  DD 56 07            		LD D,[IX+CHNPRM_CrTnSl+1]
     645.  00:4C66  19                  		ADD HL,DE
     646.  00:4C67  ED 7B 0A F0         		LD SP,[PT3_CSP]
     647.  00:4C6B  E3                  		EX [SP],HL
     648.  00:4C6C  AF                  		XOR A
     649.  00:4C6D  DD B6 05            		OR [IX+CHNPRM_TSlCnt]
     650.  00:4C70  28 3E               		JR Z,.CH_AMP
     651.  00:4C72  DD 35 05            		DEC [IX+CHNPRM_TSlCnt]
     652.  00:4C75  20 39               		JR NZ,.CH_AMP
     653.  00:4C77  DD 7E 16            		LD A,[IX+CHNPRM_TnSlDl]
     654.  00:4C7A  DD 77 05            		LD [IX+CHNPRM_TSlCnt],A
     655.  00:4C7D  DD 6E 17            		LD L,[IX+CHNPRM_TSlStp]
     656.  00:4C80  DD 66 18            		LD H,[IX+CHNPRM_TSlStp+1]
     657.  00:4C83  7C                  		LD A,H
     658.  00:4C84  19                  		ADD HL,DE
     659.  00:4C85  DD 75 06            		LD [IX+CHNPRM_CrTnSl],L
     660.  00:4C88  DD 74 07            		LD [IX+CHNPRM_CrTnSl+1],H
     661.  00:4C8B  DD CB 15 56         		BIT 2,[IX+CHNPRM_Flags]
     662.  00:4C8F  20 1F               		JR NZ,.CH_AMP
     663.  00:4C91  DD 5E 19            		LD E,[IX+CHNPRM_TnDelt]
     664.  00:4C94  DD 56 1A            		LD D,[IX+CHNPRM_TnDelt+1]
     665.  00:4C97  A7                  		AND A
     666.  00:4C98  28 01               		JR Z,.CH_STPP
     667.  00:4C9A  EB                  		EX DE,HL
     668.  00:4C9B  ED 52               .CH_STPP:	SBC HL,DE
     669.  00:4C9D  FA B0 4C            		JP M,.CH_AMP
     670.  00:4CA0  DD 7E 13            		LD A,[IX+CHNPRM_SlToNt]
     671.  00:4CA3  DD 77 12            		LD [IX+CHNPRM_Note],A
     672.  00:4CA6  AF                  		XOR A
     673.  00:4CA7  DD 77 05            		LD [IX+CHNPRM_TSlCnt],A
     674.  00:4CAA  DD 77 06            		LD [IX+CHNPRM_CrTnSl],A
     675.  00:4CAD  DD 77 07            		LD [IX+CHNPRM_CrTnSl+1],A
     676.  00:4CB0  DD 7E 02            .CH_AMP:	LD A,[IX+CHNPRM_CrAmSl]
     677.  00:4CB3  CB 79               		BIT 7,C
     678.  00:4CB5  28 13               		JR Z,.CH_NOAM
     679.  00:4CB7  CB 71               		BIT 6,C
     680.  00:4CB9  28 07               		JR Z,.CH_AMIN
     681.  00:4CBB  FE 0F               		CP 15
     682.  00:4CBD  28 0B               		JR Z,.CH_NOAM
     683.  00:4CBF  3C                  		INC A
     684.  00:4CC0  18 05               		JR .CH_SVAM
     685.  00:4CC2  FE F1               .CH_AMIN:	CP -15
     686.  00:4CC4  28 04               		JR Z,.CH_NOAM
     687.  00:4CC6  3D                  		DEC A
     688.  00:4CC7  DD 77 02            .CH_SVAM:	LD [IX+CHNPRM_CrAmSl],A
     689.  00:4CCA  6F                  .CH_NOAM:	LD L,A
     690.  00:4CCB  78                  		LD A,B
     691.  00:4CCC  E6 0F               		AND 15
     692.  00:4CCE  85                  		ADD A,L
     693.  00:4CCF  F2 D3 4C            		JP P,.CH_APOS
     694.  00:4CD2  AF                  		XOR A
     695.  00:4CD3  FE 10               .CH_APOS:	CP 16
     696.  00:4CD5  38 02               		JR C,.CH_VOL
     697.  00:4CD7  3E 0F               		LD A,15
     698.  00:4CD9  DD B6 17            .CH_VOL:	OR [IX+CHNPRM_Volume]
     699.  00:4CDC  6F                  		LD L,A
     700.  00:4CDD  26 00               		LD H,0
     701.  00:4CDF  11 3F F1            		LD DE,VT_
     702.  00:4CE2  19                  		ADD HL,DE
     703.  00:4CE3  7E                  		LD A,[HL]
     704.  00:4CE4  CB 41               .CH_ENV:	BIT 0,C
     705.  00:4CE6  20 03               		JR NZ,.CH_NOEN
     706.  00:4CE8  DD B6 14            		OR [IX+CHNPRM_Env_En]
     707.  00:4CEB  32 49 F1            .CH_NOEN:	LD [AYREGS+AR_AmplC],A
     708.  00:4CEE  CB 78               		BIT 7,B
     709.  00:4CF0  79                  		LD A,C
     710.  00:4CF1  28 19               		JR Z,.NO_ENSL
     711.  00:4CF3  17                  		RLA
     712.  00:4CF4  17                  		RLA
     713.  00:4CF5  CB 2F               		SRA A
     714.  00:4CF7  CB 2F               		SRA A
     715.  00:4CF9  CB 2F               		SRA A
     716.  00:4CFB  DD 86 04            		ADD A,[IX+CHNPRM_CrEnSl] ;SEE COMMENT BELOW
     717.  00:4CFE  CB 68               		BIT 5,B
     718.  00:4D00  28 03               		JR Z,.NO_ENAC
     719.  00:4D02  DD 77 04            		LD [IX+CHNPRM_CrEnSl],A
     720.  00:4D05  21 1C F0            .NO_ENAC:	LD HL,PT3_AddToEn
     721.  00:4D08  86                  		ADD A,[HL] ;BUG IN PT3 - NEED WORD HERE.
     722.  00:4D09                      			   ;FIX IT IN NEXT VERSION?
     723.  00:4D09  77                  		LD [HL],A
     724.  00:4D0A  18 0E               		JR .CH_MIX
     725.  00:4D0C  1F                  .NO_ENSL:	RRA
     726.  00:4D0D  DD 86 03            		ADD A,[IX+CHNPRM_CrNsSl]
     727.  00:4D10  32 7E F0            		LD [AddToNs],A
     728.  00:4D13  CB 68               		BIT 5,B
     729.  00:4D15  28 03               		JR Z,.CH_MIX
     730.  00:4D17  DD 77 03            		LD [IX+CHNPRM_CrNsSl],A
     731.  00:4D1A  78                  .CH_MIX:	LD A,B
     732.  00:4D1B  1F                  		RRA
     733.  00:4D1C  E6 48               		AND $48
     734.  00:4D1E  21 46 F1            .CH_EXIT:	LD HL,AYREGS+AR_Mixer
     735.  00:4D21  B6                  		OR [HL]
     736.  00:4D22  0F                  		RRCA
     737.  00:4D23  77                  		LD [HL],A
     738.  00:4D24  E1                  		POP HL
     739.  00:4D25  AF                  		XOR A
     740.  00:4D26  DD B6 0A            		OR [IX+CHNPRM_COnOff]
     741.  00:4D29  C8                  		RET Z
     742.  00:4D2A  DD 35 0A            		DEC [IX+CHNPRM_COnOff]
     743.  00:4D2D  C0                  		RET NZ
     744.  00:4D2E  DD AE 15            		XOR [IX+CHNPRM_Flags]
     745.  00:4D31  DD 77 15            		LD [IX+CHNPRM_Flags],A
     746.  00:4D34  1F                  		RRA
     747.  00:4D35  DD 7E 0B            		LD A,[IX+CHNPRM_OnOffD]
     748.  00:4D38  38 03               		JR C,.CH_ONDL
     749.  00:4D3A  DD 7E 0C            		LD A,[IX+CHNPRM_OffOnD]
     750.  00:4D3D  DD 77 0A            .CH_ONDL:	LD [IX+CHNPRM_COnOff],A
     751.  00:4D40  C9                  		RET
     752.  00:4D41                      
     753.  00:4D41  AF                  PT3_PLAY:	XOR A
     754.  00:4D42  32 1C F0            		LD [PT3_AddToEn],A
     755.  00:4D45  32 46 F1            		LD [AYREGS+AR_Mixer],A
     756.  00:4D48  3D                  		DEC A
     757.  00:4D49  32 4C F1            		LD [AYREGS+AR_EnvTp],A
     758.  00:4D4C  21 79 F0            		LD HL,DelyCnt
     759.  00:4D4F  35                  		DEC [HL]
     760.  00:4D50  C2 D7 4D            		JP NZ,.PL2
     761.  00:4D53  21 3D F0            		LD HL,ChanA+CHNPRM_NtSkCn
     762.  00:4D56  35                  		DEC [HL]
     763.  00:4D57  20 4E               		JR NZ,.PL1B
     764.  00:4D59  ED 4B 11 F0         		LD BC,[PT3_AdInPtA]
     765.  00:4D5D  0A                  		LD A,[BC]
     766.  00:4D5E  A7                  		AND A
     767.  00:4D5F  20 3B               		JR NZ,.PL1A
     768.  00:4D61  57                  		LD D,A
     769.  00:4D62  32 7D F0            		LD [Ns_Base],A
     770.  00:4D65  2A 02 F0            		LD HL,[PT3_CrPsPtr]
     771.  00:4D68  23                  		INC HL
     772.  00:4D69  7E                  		LD A,[HL]
     773.  00:4D6A  3C                  		INC A
     774.  00:4D6B  20 08               		JR NZ,.PLNLP
     775.  00:4D6D  CD D7 48            		CALL CHECKLP
     776.  00:4D70  2A 17 F0            		LD HL,[PT3_LPosPtr]
     777.  00:4D73  7E                  		LD A,[HL]
     778.  00:4D74  3C                  		INC A
     779.  00:4D75  22 02 F0            .PLNLP:	LD [PT3_CrPsPtr],HL
     780.  00:4D78  3D                  		DEC A
     781.  00:4D79  87                  		ADD A,A
     782.  00:4D7A  5F                  		LD E,A
     783.  00:4D7B  CB 12               		RL D
     784.  00:4D7D  2A 19 F0            		LD HL,[PT3_PatsPtr]
     785.  00:4D80  19                  		ADD HL,DE
     786.  00:4D81  ED 5B 00 F0         		LD DE,[PT3_MODADDR]
     787.  00:4D85  ED 73 0C F0         		LD [PT3_PSP],SP
     788.  00:4D89  F9                  		LD SP,HL
     789.  00:4D8A  E1                  		POP HL
     790.  00:4D8B  19                  		ADD HL,DE
     791.  00:4D8C  44                  		LD B,H
     792.  00:4D8D  4D                  		LD C,L
     793.  00:4D8E  E1                  		POP HL
     794.  00:4D8F  19                  		ADD HL,DE
     795.  00:4D90  22 13 F0            		LD [PT3_AdInPtB],HL
     796.  00:4D93  E1                  		POP HL
     797.  00:4D94  19                  		ADD HL,DE
     798.  00:4D95  22 15 F0            		LD [PT3_AdInPtC],HL
     799.  00:4D98  ED 7B 0C F0         		LD SP,[PT3_PSP]
     800.  00:4D9C                      
     801.  00:4D9C  DD 21 2E F0         .PL1A:		LD IX,ChanA+12
     802.  00:4DA0  CD 7F 4A            		CALL PTDECOD
     803.  00:4DA3  ED 43 11 F0         		LD [PT3_AdInPtA],BC
     804.  00:4DA7                      
     805.  00:4DA7  21 5A F0            .PL1B:		LD HL,ChanB+CHNPRM_NtSkCn
     806.  00:4DAA  35                  		DEC [HL]
     807.  00:4DAB  20 0F               		JR NZ,.PL1C
     808.  00:4DAD  DD 21 4B F0         		LD IX,ChanB+12
     809.  00:4DB1  ED 4B 13 F0         		LD BC,[PT3_AdInPtB]
     810.  00:4DB5  CD 7F 4A            		CALL PTDECOD
     811.  00:4DB8  ED 43 13 F0         		LD [PT3_AdInPtB],BC
     812.  00:4DBC                      
     813.  00:4DBC  21 77 F0            .PL1C:		LD HL,ChanC+CHNPRM_NtSkCn
     814.  00:4DBF  35                  		DEC [HL]
     815.  00:4DC0  20 0F               		JR NZ,.PL1D
     816.  00:4DC2  DD 21 68 F0         		LD IX,ChanC+12
     817.  00:4DC6  ED 4B 15 F0         		LD BC,[PT3_AdInPtC]
     818.  00:4DCA  CD 7F 4A            		CALL PTDECOD
     819.  00:4DCD  ED 43 15 F0         		LD [PT3_AdInPtC],BC
     820.  00:4DD1                      
     821.  00:4DD1  3A 1B F0            .PL1D:		LD A,[PT3_Delay]
     822.  00:4DD4  32 79 F0            		LD [DelyCnt],A
     823.  00:4DD7                      
     824.  00:4DD7  DD 21 22 F0         .PL2:		LD IX,ChanA
     825.  00:4DDB  2A 3F F1            		LD HL,[AYREGS+AR_TonA]
     826.  00:4DDE  CD EF 4B            		CALL CHREGS
     827.  00:4DE1  22 3F F1            		LD [AYREGS+AR_TonA],HL
     828.  00:4DE4  3A 49 F1            		LD A,[AYREGS+AR_AmplC]
     829.  00:4DE7  32 47 F1            		LD [AYREGS+AR_AmplA],A
     830.  00:4DEA  DD 21 3F F0         		LD IX,ChanB
     831.  00:4DEE  2A 41 F1            		LD HL,[AYREGS+AR_TonB]
     832.  00:4DF1  CD EF 4B            		CALL CHREGS
     833.  00:4DF4  22 41 F1            		LD [AYREGS+AR_TonB],HL
     834.  00:4DF7  3A 49 F1            		LD A,[AYREGS+AR_AmplC]
     835.  00:4DFA  32 48 F1            		LD [AYREGS+AR_AmplB],A
     836.  00:4DFD  DD 21 5C F0         		LD IX,ChanC
     837.  00:4E01  2A 43 F1            		LD HL,[AYREGS+AR_TonC]
     838.  00:4E04  CD EF 4B            		CALL CHREGS
     839.  00:4E07  22 43 F1            		LD [AYREGS+AR_TonC],HL
     840.  00:4E0A                      
     841.  00:4E0A  2A 7D F0            		LD HL,[Ns_Base_AddToNs]
     842.  00:4E0D  7C                  		LD A,H
     843.  00:4E0E  85                  		ADD A,L
     844.  00:4E0F  32 45 F1            		LD [AYREGS+AR_Noise],A
     845.  00:4E12                      
     846.  00:4E12  3A 1C F0            		LD A,[PT3_AddToEn]
     847.  00:4E15  5F                  		LD E,A
     848.  00:4E16  87                  		ADD A,A
     849.  00:4E17  9F                  		SBC A,A
     850.  00:4E18  57                  		LD D,A
     851.  00:4E19  2A 4D F1            		LD HL,[EnvBase]
     852.  00:4E1C  19                  		ADD HL,DE
     853.  00:4E1D  ED 5B 7A F0         		LD DE,[CurESld]
     854.  00:4E21  19                  		ADD HL,DE
     855.  00:4E22  22 4A F1            		LD [AYREGS+AR_Env],HL
     856.  00:4E25                      
     857.  00:4E25  AF                  		XOR A
     858.  00:4E26  21 7C F0            		LD HL,CurEDel
     859.  00:4E29  B6                  		OR [HL]
     860.  00:4E2A  C8                  		RET Z
     861.  00:4E2B  35                  		DEC [HL]
     862.  00:4E2C  C0                  		RET NZ
     863.  00:4E2D  3A 1D F0            		LD A,[PT3_Env_Del]
     864.  00:4E30  77                  		LD [HL],A
     865.  00:4E31  2A 1E F0            		LD HL,[PT3_ESldAdd]
     866.  00:4E34  19                  		ADD HL,DE
     867.  00:4E35  22 7A F0            		LD [CurESld],HL
     868.  00:4E38  C9                  		RET
     869.  00:4E39                      
     870.  00:4E39  AF                  PT3_ROUT:	XOR A
     871.  00:4E3A                      	
     872.  00:4E3A                      ROUT_A0:	; --- FIXES BITS 6 AND 7 OF MIXER ---
     873.  00:4E3A  21 46 F1            		LD	HL,AYREGS+AR_Mixer
     874.  00:4E3D  CB FE               		set	7,[hl]
     875.  00:4E3F  CB B6               		res	6,[hl]
     876.  00:4E41                      
     877.  00:4E41  0E A0               		LD C,$A0
     878.  00:4E43  21 3F F1            		LD HL,AYREGS
     879.  00:4E46  ED 79               .LOUT:		OUT [C],A
     880.  00:4E48  0C                  		INC C
     881.  00:4E49  ED A3               		OUTI 
     882.  00:4E4B  0D                  		DEC C
     883.  00:4E4C  3C                  		INC A
     884.  00:4E4D  FE 0D               		CP 13
     885.  00:4E4F  20 F5               		JR NZ,.LOUT
     886.  00:4E51  ED 79               		OUT [C],A
     887.  00:4E53  7E                  		LD A,[HL]
     888.  00:4E54  A7                  		AND A
     889.  00:4E55  F8                  		RET M
     890.  00:4E56  0C                  		INC C
     891.  00:4E57  ED 79               		OUT [C],A
     892.  00:4E59  C9                  		RET
     893.  00:4E5A                      
     894.  00:4E5A  64                  NT_DATA:	db (T_NEW_0-T1_)*2
     895.  00:4E5B  2A                  		db TCNEW_0-T_
     896.  00:4E5C  65                  		db (T_OLD_0-T1_)*2+1
     897.  00:4E5D  00                  		db TCOLD_0-T_
     898.  00:4E5E  01                  		db (T_NEW_1-T1_)*2+1
     899.  00:4E5F  0C                  		db TCNEW_1-T_
     900.  00:4E60  01                  		db (T_OLD_1-T1_)*2+1
     901.  00:4E61  0C                  		db TCOLD_1-T_
     902.  00:4E62  94                  		db (T_NEW_2-T1_)*2
     903.  00:4E63  35                  		db TCNEW_2-T_
     904.  00:4E64  30                  		db (T_OLD_2-T1_)*2
     905.  00:4E65  0E                  		db TCOLD_2-T_
     906.  00:4E66  60                  		db (T_NEW_3-T1_)*2
     907.  00:4E67  20                  		db TCNEW_3-T_
     908.  00:4E68  60                  		db (T_OLD_3-T1_)*2
     909.  00:4E69  21                  		db TCOLD_3-T_
     910.  00:4E6A                      
     911.  00:4E6A                      T_:
     912.  00:4E6A                      
     913.  00:4E6A                      TCOLD_0:	db $00+1,$04+1,$08+1,$0A+1,$0C+1,$0E+1,$12+1,$14+1
     913.  00:4E6A  01 05 09 0B 0D 0F 13 15 
     914.  00:4E72  19 25 3D 00         		db $18+1,$24+1,$3C+1,0
     915.  00:4E76                      TCNEW_1:	
     916.  00:4E76  5D 00               TCOLD_1:	db $5C+1,0
     917.  00:4E78                      TCOLD_2:	db $30+1,$36+1,$4C+1,$52+1,$5E+1,$70+1,$82,$8C,$9C
     917.  00:4E78  31 37 4D 53 5F 71 82 8C 9C 
     918.  00:4E81                      		db $9E,$A0,$A6,$A8,$AA,$AC,$AE,$AE,0
     918.  00:4E81  9E A0 A6 A8 AA AC AE AE 00 
     919.  00:4E8A  57                  TCNEW_3:	db $56+1
     920.  00:4E8B                      TCOLD_3:	db $1E+1,$22+1,$24+1,$28+1,$2C+1,$2E+1,$32+1,$BE+1,0
     920.  00:4E8B  1F 23 25 29 2D 2F 33 BF 00 
     921.  00:4E94                      TCNEW_0:	db $1C+1,$20+1,$22+1,$26+1,$2A+1,$2C+1,$30+1,$54+1
     921.  00:4E94  1D 21 23 27 2B 2D 31 55 
     922.  00:4E9C  BD BF 00            		db $BC+1,$BE+1,0
     923.  00:4E9F                      TCNEW_2:	db $1A+1,$20+1,$24+1,$28+1,$2A+1,$3A+1,$4C+1,$5E+1
     923.  00:4E9F  1B 21 25 29 2B 3B 4D 5F 
     924.  00:4EA7  BB BD BF            		db $BA+1,$BC+1,$BE+1
     925.  00:4EAA                      
     926.  00:4EAA  00 01 00 90         EMPTYSAMORN: 	db 0,1,0,$90 ;delete $90 if you don't need default sample
     927.  00:4EAE                      
     928.  00:4EAE                      T_PACK:		; First 12 values of tone tables (packed)
     929.  00:4EAE  0D                  		db ($06EC*2)/256
     930.  00:4EAF  D8                  		db #d8
     931.  00:4EB0  69                  		db $0755-$06EC
     932.  00:4EB1  70                  		db $07C5-$0755
     933.  00:4EB2  76                  		db $083B-$07C5
     934.  00:4EB3  7D                  		db $08B8-$083B
     935.  00:4EB4  85                  		db $093D-$08B8
     936.  00:4EB5  8D                  		db $09CA-$093D
     937.  00:4EB6  95                  		db $0A5F-$09CA
     938.  00:4EB7  9D                  		db $0AFC-$0A5F
     939.  00:4EB8  A8                  		db $0BA4-$0AFC
     940.  00:4EB9  B1                  		db $0C55-$0BA4
     941.  00:4EBA  BB                  		db $0D10-$0C55
     942.  00:4EBB  0C                  		db ($066D*2)/256
     943.  00:4EBC  DA                  		db #da
     944.  00:4EBD  62                  		db $06CF-$066D
     945.  00:4EBE  68                  		db $0737-$06CF
     946.  00:4EBF  6D                  		db $07A4-$0737
     947.  00:4EC0  75                  		db $0819-$07A4
     948.  00:4EC1  7B                  		db $0894-$0819
     949.  00:4EC2  83                  		db $0917-$0894
     950.  00:4EC3  8A                  		db $09A1-$0917
     951.  00:4EC4  92                  		db $0A33-$09A1
     952.  00:4EC5  9C                  		db $0ACF-$0A33
     953.  00:4EC6  A4                  		db $0B73-$0ACF
     954.  00:4EC7  AF                  		db $0C22-$0B73
     955.  00:4EC8  B8                  		db $0CDA-$0C22
     956.  00:4EC9  0E                  		db ($0704*2)/256
     957.  00:4ECA  08                  		db #08
     958.  00:4ECB  6A                  		db $076E-$0704
     959.  00:4ECC  72                  		db $07E0-$076E
     960.  00:4ECD  78                  		db $0858-$07E0
     961.  00:4ECE  7E                  		db $08D6-$0858
     962.  00:4ECF  86                  		db $095C-$08D6
     963.  00:4ED0  90                  		db $09EC-$095C
     964.  00:4ED1  96                  		db $0A82-$09EC
     965.  00:4ED2  A0                  		db $0B22-$0A82
     966.  00:4ED3  AA                  		db $0BCC-$0B22
     967.  00:4ED4  B4                  		db $0C80-$0BCC
     968.  00:4ED5  BE                  		db $0D3E-$0C80
     969.  00:4ED6  0F                  		db ($07E0*2)/256
     970.  00:4ED7  C0                  		db #c0
     971.  00:4ED8  78                  		db $0858-$07E0
     972.  00:4ED9  88                  		db $08E0-$0858
     973.  00:4EDA  80                  		db $0960-$08E0
     974.  00:4EDB  90                  		db $09F0-$0960
     975.  00:4EDC  98                  		db $0A88-$09F0
     976.  00:4EDD  A0                  		db $0B28-$0A88
     977.  00:4EDE  B0                  		db $0BD8-$0B28
     978.  00:4EDF  A8                  		db $0C80-$0BD8
     979.  00:4EE0  E0                  		db $0D60-$0C80
     980.  00:4EE1  B0                  		db $0E10-$0D60
     981.  00:4EE2  E8                  		db $0EF8-$0E10
     982.  00:4EE3                      
     983.  00:4EE3                      
     984.  00:4EE3                      	;Variables del replayer... las coloco desde aqui.
     985.  00:4EE3                      	;mirar que hace la directiva MAP del SJASM
     986.  00:4EE3  (F000)              	map		#F000
     987.  00:4EE3                      ;;;;;;;;;;;;;;;;;;;;;;;;;;;;;;;;;;;;;;PT3 REPLAYER
     988.  00:4EE3  (00:F000)           PT3_SETUP:		#0	;set bit0 to 1, if you want to play without looping
     989.  00:4EE3                                          ;bit7 is set each time, when loop point is passed
     990.  00:4EE3  (00:F000)           PT3_MODADDR:	#2
     991.  00:4EE3  (00:F002)           PT3_CrPsPtr:		#2
     992.  00:4EE3  (00:F004)           PT3_SAMPTRS:		#2
     993.  00:4EE3  (00:F006)           PT3_OrnPtrs:		#2
     994.  00:4EE3  (00:F008)           PT3_PDSP:		#2
     995.  00:4EE3  (00:F00A)           PT3_CSP:		#2 
     996.  00:4EE3  (00:F00C)           PT3_PSP:		#2
     997.  00:4EE3  (00:F00E)           PT3_PrNote:		#1
     998.  00:4EE3  (00:F00F)           PT3_PrSlide:		#2
     999.  00:4EE3  (00:F011)           PT3_AdInPtA:		#2
    1000.  00:4EE3  (00:F013)           PT3_AdInPtB:		#2
    1001.  00:4EE3  (00:F015)           PT3_AdInPtC:		#2
    1002.  00:4EE3  (00:F017)           PT3_LPosPtr:		#2
    1003.  00:4EE3  (00:F019)           PT3_PatsPtr:		#2
    1004.  00:4EE3  (00:F01B)           PT3_Delay:		#1
    1005.  00:4EE3  (00:F01C)           PT3_AddToEn:		#1
    1006.  00:4EE3  (00:F01D)           PT3_Env_Del:		#1
    1007.  00:4EE3  (00:F01E)           PT3_ESldAdd:		#2
    1008.  00:4EE3  (00:F020)           PT3_NTL3:		#2	; AND A / NOP (note table creator)
    1009.  00:4EE3                      
    1010.  00:4EE3  (00:F022)           VARS:			#0
    1011.  00:4EE3                      
    1012.  00:4EE3  (00:F022)           ChanA:			#29			;CHNPRM_Size
    1013.  00:4EE3  (00:F03F)           ChanB:			#29			;CHNPRM_Size
    1014.  00:4EE3  (00:F05C)           ChanC:			#29			;CHNPRM_Size
    1015.  00:4EE3                      
    1016.  00:4EE3                      ;GlobalVars
    1017.  00:4EE3  (00:F079)           DelyCnt:		#1
    1018.  00:4EE3  (00:F07A)           CurESld:		#2
    1019.  00:4EE3  (00:F07C)           CurEDel:		#1
    1020.  00:4EE3  (00:F07D)           Ns_Base_AddToNs:	#0
    1021.  00:4EE3  (00:F07D)           Ns_Base:		#1
    1022.  00:4EE3  (00:F07E)           AddToNs:		#1
    1023.  00:4EE3                      
    1024.  00:4EE3  (00:F07F)           NT_:			#192	; Puntero a/tabla de frecuencias
    1025.  00:4EE3                      
    1026.  00:4EE3  (00:F13F)           AYREGS:			#0
    1027.  00:4EE3  (00:F13F)           VT_:			#14
    1028.  00:4EE3  (00:F14D)           EnvBase:		#2
    1029.  00:4EE3  (00:F14F)           VAR0END:		#0
    1030.  00:4EE3                      
    1031.  00:4EE3  (00:F14F)           T1_:			#0		
    1032.  00:4EE3  (00:F14F)           T_NEW_1:		#0
    1033.  00:4EE3  (00:F14F)           T_OLD_1:		#24
    1034.  00:4EE3  (00:F167)           T_OLD_2:		#24
    1035.  00:4EE3  (00:F17F)           T_NEW_3:		#0
    1036.  00:4EE3  (00:F17F)           T_OLD_3:		#2
    1037.  00:4EE3  (00:F181)           T_OLD_0:		#0
    1038.  00:4EE3  (00:F181)           T_NEW_0:		#24
    1039.  00:4EE3  (00:F199)           T_NEW_2:		#166
    1040.  00:4EE3                      ;;;;;;;;;;;;;;;;;;;;;;;;;;;;;;;;;;;;;;PT3 REPLAYER END
    1041.  00:4EE3  (0000)                  ENDMAP
      30   00:4EE3                      ; AFX
      31   00:4EE3                          include "include\ayFX-ROM.ASM"
       1.  00:4EE3                      		; --- ayFX REPLAYER v1.31 ---
       2.  00:4EE3                      
       3.  00:4EE3                      		; --- v1.31	Fixed bug on previous version, only PSG channel C worked
       4.  00:4EE3                      		; --- v1.3	Fixed volume and Relative volume versions on the same file, conditional compilation
       5.  00:4EE3                      		; ---		Support for dynamic or fixed channel allocation
       6.  00:4EE3                      		; --- v1.2f/r	ayFX bank support
       7.  00:4EE3                      		; --- v1.11f/r	If a frame volume is zero then no AYREGS update
       8.  00:4EE3                      		; --- v1.1f/r	Fixed volume for all ayFX streams
       9.  00:4EE3                      		; --- v1.1	Explicit priority (as suggested by AR)
      10.  00:4EE3                      		; --- v1.0f	Bug fixed (error when using noise)
      11.  00:4EE3                      		; --- v1.0	Initial release
      12.  00:4EE3                      
      13.  00:4EE3                      		; --- DEFINE AYFXRELATIVE AS 0 FOR FIXED VOLUME VERSION ---
      14.  00:4EE3                      		; --- DEFINE AYFXRELATIVE AS 1 FOR RELATIVE VOLUME VERSION ---
      15.  00:4EE3  (00:0000)           AYFXRELATIVE: 	equ 0
      16.  00:4EE3                      
      17.  00:4EE3                      ayFX_SETUP:	; ---          ayFX replayer setup          ---
      18.  00:4EE3                      		; --- INPUT: HL -> pointer to the ayFX bank ---
      19.  00:4EE3  22 C3 C3            		ld	[ayFX_BANK],hl			; Current ayFX bank
      20.  00:4EE6  AF                  		xor	a				; a:=0
      21.  00:4EE7  32 C2 C3            		ld	[ayFX_MODE],a			; Initial mode: fixed channel
      22.  00:4EEA  3C                  		inc	a				; Starting channel (=1)
      23.  00:4EEB  32 CC C3            		ld	[ayFX_CHANNEL],a		; Updated
      24.  00:4EEE                      ayFX_END:	; --- End of an ayFX stream ---
      25.  00:4EEE  3E FF               		ld	a,255				; Lowest ayFX priority
      26.  00:4EF0  32 C5 C3            		ld	[ayFX_PRIORITY],a		; Priority saved (not playing ayFX stream)
      27.  00:4EF3  C9                  		ret					; Return
      28.  00:4EF4                      
      29.  00:4EF4                      ayFX_INIT:	; ---     INIT A NEW ayFX STREAM     ---
      30.  00:4EF4                      		; --- INPUT: A -> sound to be played ---
      31.  00:4EF4                      		; ---        C -> sound priority     ---
      32.  00:4EF4  C5                  		push	bc				; Store bc in stack
      33.  00:4EF5  D5                  		push	de				; Store de in stack
      34.  00:4EF6  E5                  		push	hl				; Store hl in stack
      35.  00:4EF7                      		; --- Check if the index is in the bank ---
      36.  00:4EF7  47                  		ld	b,a				; b:=a (new ayFX stream index)
      37.  00:4EF8  2A C3 C3            		ld	hl,[ayFX_BANK]			; Current ayFX BANK
      38.  00:4EFB  7E                  		ld	a,[hl]				; Number of samples in the bank
      39.  00:4EFC  B7                  		or	a				; If zero (means 256 samples)...
      40.  00:4EFD  28 06               		jr	z,.CHECK_PRI			; ...goto @@CHECK_PRI
      41.  00:4EFF                      		; The bank has less than 256 samples
      42.  00:4EFF  78                  		ld	a,b				; a:=b (new ayFX stream index)
      43.  00:4F00  BE                  		cp	[hl]				; If new index is not in the bank...
      44.  00:4F01  3E 02               		ld	a,2				; a:=2 (error 2: Sample not in the bank)
      45.  00:4F03  30 21               		jr	nc,.INIT_END			; ...we can't init it
      46.  00:4F05                      .CHECK_PRI:	; --- Check if the new priority is lower than the current one ---
      47.  00:4F05                      		; ---   Remember: 0 = highest priority, 15 = lowest priority  ---
      48.  00:4F05  78                  		ld	a,b				; a:=b (new ayFX stream index)
      49.  00:4F06  3A C5 C3            		ld	a,[ayFX_PRIORITY]		; a:=Current ayFX stream priority
      50.  00:4F09  B9                  		cp	c				; If new ayFX stream priority is lower than current one...
      51.  00:4F0A  3E 01               		ld	a,1				; a:=1 (error 1: A sample with higher priority is being played)
      52.  00:4F0C  38 18               		jr	c,.INIT_END			; ...we don't start the new ayFX stream
      53.  00:4F0E                      		; --- Set new priority ---
      54.  00:4F0E  79                  		ld	a,c				; a:=New priority
      55.  00:4F0F  E6 0F               		and	$0F				; We mask the priority
      56.  00:4F11  32 C5 C3            		ld	[ayFX_PRIORITY],a		; new ayFX stream priority saved in RAM
      57.  00:4F14                      
      58.  00:4F14                      		IF ( AYFXRELATIVE == 1 )
      59.  00:4F14                    ~ 			; --- Volume adjust using PT3 volume table ---
      60.  00:4F14                    ~ 			ld	c,a				; c:=New priority (fixed)
      61.  00:4F14                    ~ 			ld	a,15				; a:=15
      62.  00:4F14                    ~ 			sub	c				; a:=15-New priority = relative volume
      63.  00:4F14                    ~ 			jr	z,@@INIT_NOSOUND		; If priority is 15 -> no sound output (volume is zero)
      64.  00:4F14                    ~ 			add	a,a				; a:=a*2
      65.  00:4F14                    ~ 			add	a,a				; a:=a*4
      66.  00:4F14                    ~ 			add	a,a				; a:=a*8
      67.  00:4F14                    ~ 			add	a,a				; a:=a*16
      68.  00:4F14                    ~ 			ld	e,a				; e:=a
      69.  00:4F14                    ~ 			ld	d,0				; de:=a
      70.  00:4F14                    ~ 			ld	hl,VT_				; hl:=PT3 volume table
      71.  00:4F14                    ~ 			add	hl,de				; hl is a pointer to the relative volume table
      72.  00:4F14                    ~ 			ld	[ayFX_VT],hl			; Save pointer
      73.  00:4F14                    ~ 		ENDIF
      74.  00:4F14                      
      75.  00:4F14                      		; --- Calculate the pointer to the new ayFX stream ---
      76.  00:4F14  ED 5B C3 C3         		ld	de,[ayFX_BANK]			; de:=Current ayFX bank
      77.  00:4F18  13                  		inc	de				; de points to the increments table of the bank
      78.  00:4F19  68                  		ld	l,b				; l:=b (new ayFX stream index)
      79.  00:4F1A  26 00               		ld	h,0				; hl:=b (new ayFX stream index)
      80.  00:4F1C  29                  		add	hl,hl				; hl:=hl*2
      81.  00:4F1D  19                  		add	hl,de				; hl:=hl+de (hl points to the correct increment)
      82.  00:4F1E  5E                  		ld	e,[hl]				; e:=lower byte of the increment
      83.  00:4F1F  23                  		inc	hl				; hl points to the higher byte of the correct increment
      84.  00:4F20  56                  		ld	d,[hl]				; de:=increment
      85.  00:4F21  19                  		add	hl,de				; hl:=hl+de (hl points to the new ayFX stream)
      86.  00:4F22  22 C6 C3            		ld	[ayFX_POINTER],hl		; Pointer saved in RAM
      87.  00:4F25  AF                  		xor	a				; a:=0 (no errors)
      88.  00:4F26  E1                  .INIT_END:	pop	hl				; Retrieve hl from stack
      89.  00:4F27  D1                  		pop	de				; Retrieve de from stack
      90.  00:4F28  C1                  		pop	bc				; Retrieve bc from stack
      91.  00:4F29  C9                  		ret					; Return
      92.  00:4F2A                      
      93.  00:4F2A                      		IF ( AYFXRELATIVE == 1 )
      94.  00:4F2A                    ~ 	.INIT_NOSOUND:	; --- Init a sample with relative volume zero -> no sound output ---
      95.  00:4F2A                    ~ 			ld	a,255				; Lowest ayFX priority
      96.  00:4F2A                    ~ 			ld	[ayFX_PRIORITY],a		; Priority saved (not playing ayFX stream)
      97.  00:4F2A                    ~ 			jr	.INIT_END			; Jumps to @@INIT_END
      98.  00:4F2A                    ~ 		ENDIF
      99.  00:4F2A                      
     100.  00:4F2A                      ayFX_PLAY:	; --- PLAY A FRAME OF AN ayFX STREAM ---
     101.  00:4F2A  3A C5 C3            		ld	a,[ayFX_PRIORITY]		; a:=Current ayFX stream priority
     102.  00:4F2D  B7                  		or	a				; If priority has bit 7 on...
     103.  00:4F2E  F8                  		ret	m				; ...return
     104.  00:4F2F                      		; --- Calculate next ayFX channel (if needed) ---
     105.  00:4F2F  3A C2 C3            		ld	a,[ayFX_MODE]			; ayFX mode
     106.  00:4F32  E6 01               		and	1				; If bit0=0 (fixed channel)...
     107.  00:4F34  28 08               		jr	z,.TAKECB			; ...skip channel changing
     108.  00:4F36  21 CC C3            		ld	hl,ayFX_CHANNEL			; Old ayFX playing channel
     109.  00:4F39  35                  		dec	[hl]				; New ayFX playing channel
     110.  00:4F3A  20 02               		jr	nz,.TAKECB			; If not zero jump to @@TAKECB
     111.  00:4F3C  36 03               		ld	[hl],3				; If zero -> set channel 3
     112.  00:4F3E                      .TAKECB:	; --- Extract control byte from stream ---
     113.  00:4F3E  2A C6 C3            		ld	hl,[ayFX_POINTER]		; Pointer to the current ayFX stream
     114.  00:4F41  4E                  		ld	c,[hl]				; c:=Control byte
     115.  00:4F42  23                  		inc	hl				; Increment pointer
     116.  00:4F43                      		; --- Check if there's new tone on stream ---
     117.  00:4F43  CB 69               		bit	5,c				; If bit 5 c is off...
     118.  00:4F45  28 08               		jr	z,.CHECK_NN			; ...jump to @@CHECK_NN (no new tone)
     119.  00:4F47                      		; --- Extract new tone from stream ---
     120.  00:4F47  5E                  		ld	e,[hl]				; e:=lower byte of new tone
     121.  00:4F48  23                  		inc	hl				; Increment pointer
     122.  00:4F49  56                  		ld	d,[hl]				; d:=higher byte of new tone
     123.  00:4F4A  23                  		inc	hl				; Increment pointer
     124.  00:4F4B  ED 53 C8 C3         		ld	[ayFX_TONE],de			; ayFX tone updated
     125.  00:4F4F                      .CHECK_NN:	; --- Check if there's new noise on stream ---
     126.  00:4F4F  CB 71               		bit	6,c				; if bit 6 c is off...
     127.  00:4F51  28 09               		jr	z,.SETPOINTER			; ...jump to @@SETPOINTER (no new noise)
     128.  00:4F53                      		; --- Extract new noise from stream ---
     129.  00:4F53  7E                  		ld	a,[hl]				; a:=New noise
     130.  00:4F54  23                  		inc	hl				; Increment pointer
     131.  00:4F55  FE 20               		cp	$20				; If it's an illegal value of noise (used to mark end of stream)...
     132.  00:4F57  28 95               		jr	z,ayFX_END			; ...jump to ayFX_END
     133.  00:4F59  32 CA C3            		ld	[ayFX_NOISE],a			; ayFX noise updated
     134.  00:4F5C                      .SETPOINTER:	; --- Update ayFX pointer ---
     135.  00:4F5C  22 C6 C3            		ld	[ayFX_POINTER],hl		; Update ayFX stream pointer
     136.  00:4F5F                      		; --- Extract volume ---
     137.  00:4F5F  79                  		ld	a,c				; a:=Control byte
     138.  00:4F60  E6 0F               		and	$0F				; lower nibble
     139.  00:4F62                      
     140.  00:4F62                      		IF ( AYFXRELATIVE == 1 )
     141.  00:4F62                    ~ 			; --- Fix the volume using PT3 Volume Table ---
     142.  00:4F62                    ~ 			ld	hl,[ayFX_VT]			; hl:=Pointer to relative volume table
     143.  00:4F62                    ~ 			ld	e,a				; e:=a (ayFX volume)
     144.  00:4F62                    ~ 			ld	d,0				; d:=0
     145.  00:4F62                    ~ 			add	hl,de				; hl:=hl+de (hl points to the relative volume of this frame
     146.  00:4F62                    ~ 			ld	a,[hl]				; a:=ayFX relative volume
     147.  00:4F62                    ~ 			or	a				; If relative volume is zero...
     148.  00:4F62                    ~ 		ENDIF
     149.  00:4F62                      
     150.  00:4F62  32 CB C3            		ld	[ayFX_VOLUME],a			; ayFX volume updated
     151.  00:4F65  C8                  		ret	z				; ...return (don't copy ayFX values in to AYREGS)
     152.  00:4F66                      		; -------------------------------------
     153.  00:4F66                      		; --- COPY ayFX VALUES IN TO AYREGS ---
     154.  00:4F66                      		; -------------------------------------
     155.  00:4F66                      		; --- Set noise channel ---
     156.  00:4F66  CB 79               		bit	7,c				; If noise is off...
     157.  00:4F68  20 06               		jr	nz,.SETMASKS			; ...jump to @@SETMASKS
     158.  00:4F6A  3A CA C3            		ld	a,[ayFX_NOISE]			; ayFX noise value
     159.  00:4F6D  32 45 F1            		ld	[AYREGS+6],a			; copied in to AYREGS (noise channel)
     160.  00:4F70                      .SETMASKS:	; --- Set mixer masks ---
     161.  00:4F70  79                  		ld	a,c				; a:=Control byte
     162.  00:4F71  E6 90               		and	$90				; Only bits 7 and 4 (noise and tone mask for psg reg 7)
     163.  00:4F73  FE 90               		cp	$90				; If no noise and no tone...
     164.  00:4F75  C8                  		ret	z				; ...return (don't copy ayFX values in to AYREGS)
     165.  00:4F76                      		; --- Copy ayFX values in to ARYREGS ---
     166.  00:4F76  0F                  		rrca					; Rotate a to the right (1 TIME)
     167.  00:4F77  0F                  		rrca					; Rotate a to the right (2 TIMES) (OR mask)
     168.  00:4F78  16 DB               		ld	d,$DB				; d:=Mask for psg mixer (AND mask)
     169.  00:4F7A                      		; --- Dump to correct channel ---
     170.  00:4F7A  21 CC C3            		ld	hl,ayFX_CHANNEL			; Next ayFX playing channel
     171.  00:4F7D  46                  		ld	b,[hl]				; Channel counter
     172.  00:4F7E                      .CHK1:		; --- Check if playing channel was 1 ---
     173.  00:4F7E  10 0D               		djnz	.CHK2				; Decrement and jump if channel was not 1
     174.  00:4F80                      .LAY_C:	; --- Play ayFX stream on channel C ---
     175.  00:4F80  CD AF 4F            		call	.SETMIXER			; Set PSG mixer value (returning a=ayFX volume and hl=ayFX tone)
     176.  00:4F83  32 49 F1            		ld	[AYREGS+10],a			; Volume copied in to AYREGS (channel C volume)
     177.  00:4F86  CB 51               		bit	2,c				; If tone is off...
     178.  00:4F88  C0                  		ret	nz				; ...return
     179.  00:4F89  22 43 F1            		ld	[AYREGS+4],hl			; copied in to AYREGS (channel C tone)
     180.  00:4F8C  C9                  		ret					; Return
     181.  00:4F8D                      .CHK2:		; --- Check if playing channel was 2 ---
     182.  00:4F8D  CB 0A               		rrc	d				; Rotate right AND mask
     183.  00:4F8F  0F                  		rrca					; Rotate right OR mask
     184.  00:4F90  10 0D               		djnz	.CHK3				; Decrement and jump if channel was not 2
     185.  00:4F92                      .PLAY_B:	; --- Play ayFX stream on channel B ---
     186.  00:4F92  CD AF 4F            		call	.SETMIXER			; Set PSG mixer value (returning a=ayFX volume and hl=ayFX tone)
     187.  00:4F95  32 48 F1            		ld	[AYREGS+9],a			; Volume copied in to AYREGS (channel B volume)
     188.  00:4F98  CB 49               		bit	1,c				; If tone is off...
     189.  00:4F9A  C0                  		ret	nz				; ...return
     190.  00:4F9B  22 41 F1            		ld	[AYREGS+2],hl			; copied in to AYREGS (channel B tone)
     191.  00:4F9E  C9                  		ret					; Return
     192.  00:4F9F                      .CHK3:		; --- Check if playing channel was 3 ---
     193.  00:4F9F  CB 0A               		rrc	d				; Rotate right AND mask
     194.  00:4FA1  0F                  		rrca					; Rotate right OR mask
     195.  00:4FA2                      .PLAY_A:	; --- Play ayFX stream on channel A ---
     196.  00:4FA2  CD AF 4F            		call	.SETMIXER			; Set PSG mixer value (returning a=ayFX volume and hl=ayFX tone)
     197.  00:4FA5  32 47 F1            		ld	[AYREGS+8],a			; Volume copied in to AYREGS (channel A volume)
     198.  00:4FA8  CB 41               		bit	0,c				; If tone is off...
     199.  00:4FAA  C0                  		ret	nz				; ...return
     200.  00:4FAB  22 3F F1            		ld	[AYREGS+0],hl			; copied in to AYREGS (channel A tone)
     201.  00:4FAE  C9                  		ret					; Return
     202.  00:4FAF                      .SETMIXER:	; --- Set PSG mixer value ---
     203.  00:4FAF  4F                  		ld	c,a				; c:=OR mask
     204.  00:4FB0  3A 46 F1            		ld	a,[AYREGS+7]			; a:=PSG mixer value
     205.  00:4FB3  A2                  		and	d				; AND mask
     206.  00:4FB4  B1                  		or	c				; OR mask
     207.  00:4FB5  32 46 F1            		ld	[AYREGS+7],a			; PSG mixer value updated
     208.  00:4FB8  3A CB C3            		ld	a,[ayFX_VOLUME]			; a:=ayFX volume value
     209.  00:4FBB  2A C8 C3            		ld	hl,[ayFX_TONE]			; ayFX tone value
     210.  00:4FBE  C9                  		ret					; Return
     211.  00:4FBF                      
     212.  00:4FBF                      		IF ( AYFXRELATIVE == 1 )
     213.  00:4FBF                    ~ 			; --- UNCOMMENT THIS IF YOU DON'T USE THIS REPLAYER WITH PT3 REPLAYER ---
     214.  00:4FBF                    ~ 		;VT_:	.INCBIN	"VT.BIN"
     215.  00:4FBF                    ~ 			; --- UNCOMMENT THIS IF YOU DON'T USE THIS REPLAYER WITH PT3 REPLAYER ---
     216.  00:4FBF                    ~ 		ENDIF
      32   00:4FBF                      ; GFX
      33   00:4FBF                          ;include "include\metatiles.asm"
      34   00:4FBF                      ; entities
      35   00:4FBF                          include "include\entities.asm"
       1.  00:4FBF                      ; Entities struct
       2.  00:4FBF                      ; 0 - on/off
       3.  00:4FBF                      ; 1 - x
       4.  00:4FBF                      ; 2 - y
       5.  00:4FBF                      ; 3 - energy
       6.  00:4FBF                      ; 4 - ENEMY_COLLISION_OFFSET_X
       7.  00:4FBF                      ; 5 - ENEMY_COLLISION_OFFSET_Y
       8.  00:4FBF                      ; 6 - ENEMY_COLLISION_WIDTH
       9.  00:4FBF                      ; 7 - ENEMY_COLLISION_HEIGHT
      10.  00:4FBF                      ; 8 - spritenumber in spat
      11.  00:4FBF                      ; 9 - damage
      12.  00:4FBF                      
      13.  00:4FBF                      init_playerDAT: db 1,$7F,$69,24,12,12,15,15,0
      13.  00:4FBF  01 7F 69 18 0C 0C 0F 0F 00 
      14.  00:4FC8                      enemy1_stg1DAT: db 1,$AF,$0F,4,16,16,16,16,4
      14.  00:4FC8  01 AF 0F 04 10 10 10 10 04 
      15.  00:4FD1                      
      36   00:4FD1                      START
      37   00:4FD1                      	; CODE
      38   00:4FD1  21 E9 F3                ld hl,FORCLR ; Variable del Sistema
      39   00:4FD4  36 00               	ld [hl],0 ; Color del primer plano 15=blanco
      40   00:4FD6  23                  	inc hl ; FORCLR+1
      41   00:4FD7  36 00               	ld [hl],0 ; Color de fondo 1=negro
      42   00:4FD9  23                  	inc hl ; FORCLR+2
      43   00:4FDA  36 00               	ld [hl],0 ; Color del borde 1=negro
      44   00:4FDC  3E 08               	LD A,8
      45   00:4FDE                      	;CALL CHGMOD    	
      46   00:4FDE  CD 64 42                CALL SETPAGES32K
      47   00:4FE1                      	;CALL opening_screen
      48   00:4FE1  3E 01               	LD A,1
      49   00:4FE3  32 00 70            	LD (_bank2),A
      50   00:4FE6                      	;CALL CHGET
      51   00:4FE6                      	; Empieza el juego    
      52   00:4FE6  CD D1 41            	call ClearVram_MSX2		
      53   00:4FE9  CD 77 42            	call SET_SCREEN5_MODE    
      54   00:4FEC  CD C5 41                call Set212Lines
      55   00:4FEF                              
      56   00:4FEF  CD 16 50                call INIT_CHARS_VARS
      57   00:4FF2  CD 23 46                call initVDPBuffers    
      58   00:4FF5                      
      59   00:4FF5  3E FF                   LD A, -MOV_SPEED_GHOST
      60   00:4FF7  32 48 C0            	LD (CHAR_SPEED_X_GHOST), A
      61   00:4FFA  21 88 77                LD HL, PaletteData
      62   00:4FFD  CD 03 43                CALL SetPalette
      63   00:5000                          ; init sfx
      64   00:5000  F3                      di	
      65   00:5001  21 72 56            	ld		hl,SONG-99		; hl vale la direccion donde se encuentra la cancion - 99
      66   00:5004  DD E5                   PUSH IX
      67   00:5006  CD F4 48                call	PT3_INIT			; Inicia el reproductor de PT3
      68   00:5009  21 DF 54            	ld hl, AFX
      69   00:500C  CD E3 4E                call ayFX_SETUP
      70   00:500F  DD E1                   POP IX
      71   00:5011  FB                      ei
      72   00:5012                              
      73   00:5012                          ; Start STG1    
      74   00:5012  CD A5 50                CALL STAGE1
      75   00:5015                      
      76   00:5015                          ;call MAIN_LOOP
      77   00:5015                          ;CALL CHGET
      78   00:5015  C9                  	ret
      79   00:5016                      
      80   00:5016                      
      81   00:5016                      INIT_CHARS_VARS:    
      82   00:5016  DD 21 55 C0             ld ix, SPRITE_ATTRS           
      83   00:501A                          
      84   00:501A  DD 36 00 69             ld (ix), 69h        ; Sprite 1 - $AF abajo - Y
      85   00:501E  DD 36 01 7F             ld (ix+1), 7Fh      ; X        
      86   00:5022  DD 36 02 00             ld (ix+2), 00h      ; Pattern
      87   00:5026                      
      88   00:5026  DD 36 04 69             ld (ix+4), 69h     ; Sprite 2
      89   00:502A  DD 36 05 7F             ld (ix+5), 7Fh
      90   00:502E  DD 36 06 04             ld (ix+6), 04h        
      91   00:5032                      
      92   00:5032  DD 36 08 69             ld (ix+8), 69h     ; Sprite 3
      93   00:5036  DD 36 09 7F             ld (ix+9), 7Fh
      94   00:503A  DD 36 0A 08             ld (ix+10), 08h        
      95   00:503E                      
      96   00:503E  DD 36 10 0F             ld (ix+SPR_GHOST_STG1), $0f      ; Sprite 1 - Ghost - mask0
      97   00:5042  DD 36 11 AF             ld (ix+SPR_GHOST_STG1+1), $AF
      98   00:5046  DD 36 12 1C             ld (ix+SPR_GHOST_STG1+2), SPR_GHOST_STG1_PTRN_L1
      99   00:504A                          
     100   00:504A  DD 36 14 0F             ld (ix+SPR_GHOST_STG1+4), $0f      ; Sprite 1 - Ghost - mask0
     101   00:504E  DD 36 15 AF             ld (ix+SPR_GHOST_STG1+5), $AF
     102   00:5052  DD 36 16 20             ld (ix+SPR_GHOST_STG1+6), SPR_GHOST_STG1_PTRN_L1+4
     103   00:5056                          
     104   00:5056  AF                      XOR A
     105   00:5057  32 1B C0                LD (current_level), A
     106   00:505A  32 45 C0                LD (JIFFY_TEMP),A
     107   00:505D  32 46 C0                LD (CHAR_SPEED_X),A
     108   00:5060  32 47 C0                LD (CHAR_SPEED_Y),A
     109   00:5063  32 48 C0                LD (CHAR_SPEED_X_GHOST),A
     110   00:5066  32 4D C0                LD (CHAR_DIR_GHOST1),A      ; $00 - LEFT, $FF - RIGHT
     111   00:5069  32 50 C0                LD (CHAR_NEW_DIR_MAIN),A    
     112   00:506C  32 51 C0                LD (CHAR_MAIN_SHOOT),A      ; Indica si el personaje está disparando - $FF
     113   00:506F  32 53 C0                LD (CHAR_DISTANCE_SHOOT),A
     114   00:5072  32 54 C0                LD (CHAR_SPEED_SHOOT),A
     115   00:5075  32 4A C0                LD (CHAR_GHOST_DEAD),A
     116   00:5078  32 52 C0                LD (CHAR_MIN_STEP), A
     117   00:507B  32 DC C0                LD (SPRITE_COLOR_REPLACE2), A
     118   00:507E  32 3E C0                LD (SHOWING_GUS_DIALOG), A
     119   00:5081  32 3D C0                LD (SHOWING_JOHN_DIALOG), A
     120   00:5084  32 3C C0                LD (SHOWING_MIKE_DIALOG), A
     121   00:5087  32 3B C0                LD (SHOWING_SKULL_STG1_DIALOG), A    
     122   00:508A  32 3A C0                LD (stg1_puzzle_solved), A
     123   00:508D                         ; LD A,$FF
     124   00:508D  32 44 C0                LD (OLD_KEY_PRESSED), A
     125   00:5090  3E 01                   LD A,$01
     126   00:5092  32 4F C0                LD (CHAR_DIR_MAIN),A        ; $00 - UP, $01 - DOWN, $02 - LEFT, $03 - RIGHT
     127   00:5095                      
     128   00:5095  21 7C 66                ld hl, SPRITE_P1_DOWN
     129   00:5098  22 D8 C0                ld (SPRITE_PTR_REPLACE), HL    
     130   00:509B  21 7C 6C                ld hl, SPRITE_COLOR_P1_DOWN
     131   00:509E  22 DA C0                ld (SPRITE_COLOR_REPLACE), HL
     132   00:50A1  22 DC C0                LD (SPRITE_COLOR_REPLACE2), HL
     133   00:50A4                      
     134   00:50A4                          
     135   00:50A4  C9                      ret
     136   00:50A5                      
     137   00:50A5                      STAGE1:
     138   00:50A5  CD C7 47                CALL DISSCR
     139   00:50A8  21 00 80                LD HL, CEMENTER1
     140   00:50AB  22 E0 C0                LD (BITMAP), HL
     141   00:50AE  06 07                   LD B, :CEMENTER1
     142   00:50B0  CD 0F 42                call load_screen
     143   00:50B3                          
     144   00:50B3  CD 9C 42                call DUMP_SPR_ALL
     145   00:50B6  CD E6 42                CALL DUMP_SPR_P1
     146   00:50B9                          
     147   00:50B9  21 48 6D                LD HL, mapa1
     148   00:50BC  11 E2 C0                LD DE, MAP_RAM
     149   00:50BF  01 E0 02                LD BC, 736
     150   00:50C2  ED B0                   LDIR
     151   00:50C4                          
     152   00:50C4  21 E2 C0                LD HL, MAP_RAM
     153   00:50C7  22 DE C0                LD (MAPA), HL
     154   00:50CA                          
     155   00:50CA                          ;We load the tiles on page 1 of VDP
     156   00:50CA  21 A8 77                LD HL, TILES1    
     157   00:50CD  CD C1 42                call load_tiles_vdp
     158   00:50D0                          
     159   00:50D0                          ; set energy
     160   00:50D0  21 10 40                LD HL, ANDY_MAX_ENERGY
     161   00:50D3                          ;ADD HL, current_level
     162   00:50D3  7E                      LD A, (HL)  ; no offset for level 1
     163   00:50D4  32 03 C0                LD (ENTITY_PLAYER_POINTER+3), A
     164   00:50D7  CD 21 48                CALL DRAW_ANDY_ENERGY
     165   00:50DA                      
     166   00:50DA  3A 3A C0                LD A, (stg1_puzzle_solved)
     167   00:50DD  FE 03                   CP 3
     168   00:50DF  20 30                   JR NZ, .nobackfromstg2
     169   00:50E1                              ; Open the gate!
     170   00:50E1  FD 21 1C C0             LD IY, tileDat
     171   00:50E5  FD 36 00 60             LD (IY + VDP_SX), 96      ; SXL - Tile 2
     172   00:50E9  FD 36 02 00             LD (IY+VDP_SY), 0      ; SYL
     173   00:50ED  FD 36 04 70             LD (IY + VDP_DX), 112     ; DXL    
     174   00:50F1  FD 36 06 00             LD (IY + VDP_DY), 0      ; DYL    
     175   00:50F5  21 1C C0                LD HL, tileDat
     176   00:50F8  CD 95 47                CALL VDPCMD
     177   00:50FB                      
     178   00:50FB                          ; Modify MAP
     179   00:50FB  21 3C 6D                LD HL,stg1_gate
     180   00:50FE  11 F0 C0                LD DE, MAP_RAM+14
     181   00:5101  01 04 00                LD BC, 4
     182   00:5104  ED B0                   LDIR
     183   00:5106                      
     184   00:5106  21 3C 6D                LD HL,stg1_gate
     185   00:5109  11 10 C1                LD DE, MAP_RAM+46
     186   00:510C  01 04 00                LD BC, 4
     187   00:510F  ED B0                   LDIR
     188   00:5111                          
     189   00:5111                      .nobackfromstg2
     190   00:5111                              ; Copy the energy bar to back buffer
     191   00:5111  21 AA 48                LD HL, DiagBoxToBackBufROM
     192   00:5114  CD 95 47            	call VDPCMD
     193   00:5117                      ;	call VDP_Ready
     194   00:5117  CD C0 47                CALL ENASCR    
     195   00:511A                          
     196   00:511A                      MAIN_LOOP:
     197   00:511A                          ;halt ; sincroniza el teclado y pantalla con el procesador (que va muy rápido)    
     198   00:511A                          
     199   00:511A  DD 7E 00                LD A, (ix)  ; Cargamos la Y
     200   00:511D  FE 00                   CP $00
     201   00:511F  CA A6 53                JP Z, STAGE2
     202   00:5122  CD CB 42                call DUMP_SPR_ATTS    
     203   00:5125                      
     204   00:5125                      .check_tombs:
     205   00:5125                      
     206   00:5125  3A 3A C0                LD A, (stg1_puzzle_solved)
     207   00:5128  FE 03                   CP 3
     208   00:512A  CA A4 52                JP Z, .animate_ghost
     209   00:512D                      
     210   00:512D  DD 7E 01                LD A, (ix +1)   ; Cargamos la X para mirar si hay colisión con la tumba
     211   00:5130  FE C8                   CP MIKE_TOMB_STG1_X
     212   00:5132  C2 A8 51                JP NZ, .check_john_tomb    
     213   00:5135                          
     214   00:5135  3A 3A C0                LD A, (stg1_puzzle_solved)
     215   00:5138  FE 02                   CP 2
     216   00:513A  C2 82 51                JP NZ, .puzzle_wrong_order
     217   00:513D  3C                      INC A
     218   00:513E  32 3A C0                LD (stg1_puzzle_solved), A
     219   00:5141                          ; Open the gate!
     220   00:5141  FD 21 1C C0             LD IY, tileDat
     221   00:5145  FD 36 00 60             LD (IY + VDP_SX), 96      ; SXL - Tile 2
     222   00:5149  FD 36 02 00             LD (IY+VDP_SY), 0      ; SYL
     223   00:514D  FD 36 04 70             LD (IY + VDP_DX), 112     ; DXL    
     224   00:5151  FD 36 06 00             LD (IY + VDP_DY), 0      ; DYL    
     225   00:5155  21 1C C0                LD HL, tileDat
     226   00:5158  CD 95 47                CALL VDPCMD
     227   00:515B                      
     228   00:515B  FD 21 10 41             LD IY, stg1_puzzle_solved_strings
     229   00:515F  CD 50 46                CALL print_strings_dialog_box
     230   00:5162                      
     231   00:5162                          ; Modify MAP
     232   00:5162  21 3C 6D                LD HL,stg1_gate
     233   00:5165  11 F0 C0                LD DE, MAP_RAM+14
     234   00:5168  01 04 00                LD BC, 4
     235   00:516B  ED B0                   LDIR
     236   00:516D                      
     237   00:516D  21 3C 6D                LD HL,stg1_gate
     238   00:5170  11 10 C1                LD DE, MAP_RAM+46
     239   00:5173  01 04 00                LD BC, 4
     240   00:5176  ED B0                   LDIR
     241   00:5178                          ; afx
     242   00:5178  3E 02                   LD A,2
     243   00:517A  0E 00                   LD C, 0
     244   00:517C  CD F4 4E                CALL ayFX_INIT
     245   00:517F                      
     246   00:517F  C3 A4 52                JP .animate_ghost
     247   00:5182                      
     248   00:5182                      .puzzle_wrong_order
     249   00:5182  3A 3C C0                LD A, (SHOWING_MIKE_DIALOG)
     250   00:5185  FE 01                   CP 1
     251   00:5187  CA A4 52                JP Z, .animate_ghost    
     252   00:518A  FD 21 16 40             LD IY, mike_tomb_strings
     253   00:518E  CD 50 46                CALL print_strings_dialog_box
     254   00:5191  3E 01                   LD A,1
     255   00:5193  32 3C C0                LD (SHOWING_MIKE_DIALOG), A
     256   00:5196  AF                      XOR A
     257   00:5197  32 3A C0                LD (stg1_puzzle_solved), A
     258   00:519A                                  ; Close the gate!
     259   00:519A                          ;LD IY, tileDat
     260   00:519A                          ;LD (IY + VDP_SX), 0      ; SXL - Tile 2
     261   00:519A                          ;LD (IY+VDP_SY), 0      ; SYL
     262   00:519A                          ;LD (IY + VDP_DX), 112     ; DXL    
     263   00:519A                          ;LD (IY + VDP_DY), 0      ; DYL    
     264   00:519A                          ;LD HL, tileDat
     265   00:519A                          ;CALL VDPCMD
     266   00:519A                      
     267   00:519A  21 42 6D                LD HL,stg1_gate_blocked
     268   00:519D  11 0F C1                LD DE, MAP_RAM+45
     269   00:51A0  01 06 00                LD BC, 6
     270   00:51A3  ED B0                   LDIR
     271   00:51A5                      
     272   00:51A5  C3 A4 52                JP .animate_ghost
     273   00:51A8                      
     274   00:51A8                      .check_john_tomb:
     275   00:51A8  FE 29                   CP JOHN_TOMB_STG1_X
     276   00:51AA  20 44                   jr nz, .check_gus_tomb
     277   00:51AC  3A 3D C0                LD A, (SHOWING_JOHN_DIALOG)
     278   00:51AF  FE 01                   CP 1
     279   00:51B1  CA A4 52                JP Z, .animate_ghost
     280   00:51B4  FD 21 55 40             LD IY, john_tomb_strings
     281   00:51B8  CD 50 46                CALL print_strings_dialog_box
     282   00:51BB  3E 01                   LD A,1
     283   00:51BD  32 3D C0                LD (SHOWING_JOHN_DIALOG), A
     284   00:51C0  3A 3A C0                LD A, (stg1_puzzle_solved)
     285   00:51C3  FE 01                   CP 1
     286   00:51C5  C2 A4 52                JP NZ, .animate_ghost
     287   00:51C8  3C                      INC A
     288   00:51C9  32 3A C0                LD (stg1_puzzle_solved), A
     289   00:51CC                          ; Half open gate
     290   00:51CC  FD 21 1C C0             LD IY, tileDat
     291   00:51D0  FD 36 00 40             LD (IY + VDP_SX), 64      ; SXL - Tile 2
     292   00:51D4  FD 36 02 00             LD (IY+VDP_SY), 0      ; SYL
     293   00:51D8  FD 36 04 70             LD (IY + VDP_DX), 112     ; DXL    
     294   00:51DC  FD 36 06 00             LD (IY + VDP_DY), 0      ; DYL    
     295   00:51E0  21 1C C0                LD HL, tileDat
     296   00:51E3  CD 95 47                CALL VDPCMD
     297   00:51E6                          ; afx
     298   00:51E6  3E 00                   LD A,0
     299   00:51E8  0E 00                   LD C, 0
     300   00:51EA  CD F4 4E                CALL ayFX_INIT
     301   00:51ED                      
     302   00:51ED  C3 A4 52                JP .animate_ghost
     303   00:51F0                      
     304   00:51F0                      .check_gus_tomb:
     305   00:51F0  FE 49                   CP GUS_TOMB_STG1_X
     306   00:51F2  C2 42 52                JP nz, .check_skull_hint
     307   00:51F5  3A 3E C0                LD A, (SHOWING_GUS_DIALOG)
     308   00:51F8  FE 01                   CP 1
     309   00:51FA  CA A4 52                JP Z, .animate_ghost
     310   00:51FD  DD 7E 00                LD A, (ix)
     311   00:5200  FE 78                   CP GUS_TOMB_STG1_Y
     312   00:5202  DA A4 52                jp c, .animate_ghost
     313   00:5205  FD 21 92 40             LD IY, gus_tomb_strings
     314   00:5209  CD 50 46                CALL print_strings_dialog_box
     315   00:520C  3E 01                   LD A,1
     316   00:520E  32 3E C0                LD (SHOWING_GUS_DIALOG), A
     317   00:5211  32 3A C0                LD (stg1_puzzle_solved), A
     318   00:5214                          ; Remove the lockpad
     319   00:5214  FD 21 1C C0             LD IY, tileDat
     320   00:5218  FD 36 00 20             LD (IY + VDP_SX), 32      ; SXL - Tile 1
     321   00:521C  FD 36 02 00             LD (IY+VDP_SY), 0      ; SYL
     322   00:5220  FD 36 04 70             LD (IY + VDP_DX), 112     ; DXL    
     323   00:5224  FD 36 06 00             LD (IY + VDP_DY), 0      ; DYL    
     324   00:5228  21 1C C0                LD HL, tileDat
     325   00:522B  CD 95 47                CALL VDPCMD
     326   00:522E                      
     327   00:522E  21 3C 6D                LD HL,stg1_gate
     328   00:5231  11 11 C1                LD DE, MAP_RAM+47
     329   00:5234  01 02 00                LD BC, 2
     330   00:5237  ED B0                   LDIR
     331   00:5239                      
     332   00:5239                          ; afx
     333   00:5239  3E 01                   LD A,1
     334   00:523B  0E 00                   LD C, 0
     335   00:523D  CD F4 4E                CALL ayFX_INIT
     336   00:5240                      
     337   00:5240  18 62                   JR .animate_ghost
     338   00:5242                      
     339   00:5242                      .check_skull_hint:
     340   00:5242  FE 69                   CP SKULL_TOMB_STG1_X
     341   00:5244  20 20                   jr nz, .check_mike_dialog_box
     342   00:5246                              
     343   00:5246  DD 7E 00                LD A, (ix)
     344   00:5249  FE 5A                   CP SKULL_TOMB_STG1_Y1
     345   00:524B  38 19                   jr c, .check_mike_dialog_box
     346   00:524D  FE 64                   CP SKULL_TOMB_STG1_Y2
     347   00:524F  30 15                   jr nc, .check_mike_dialog_box
     348   00:5251                      
     349   00:5251  3A 3B C0                LD A, (SHOWING_SKULL_STG1_DIALOG)
     350   00:5254  FE 01                   CP 1
     351   00:5256  28 4C                   JR Z, .animate_ghost
     352   00:5258  FD 21 D3 40             LD IY, stg1_skull_strings
     353   00:525C  CD 50 46                CALL print_strings_dialog_box
     354   00:525F  3E 01                   LD A,1
     355   00:5261  32 3B C0                LD (SHOWING_SKULL_STG1_DIALOG), A
     356   00:5264  18 3E                   JR .animate_ghost
     357   00:5266                      
     358   00:5266                      .check_mike_dialog_box
     359   00:5266  3A 3C C0                LD A, (SHOWING_MIKE_DIALOG)
     360   00:5269  FE 01                   CP 1
     361   00:526B  20 09                   JR nz, .check_gus_dialog
     362   00:526D  CD 4C 47                CALL CLEAR_DIALOG_BOX
     363   00:5270  AF                      XOR A
     364   00:5271  32 3C C0                LD (SHOWING_MIKE_DIALOG), A
     365   00:5274  18 2E                   JR .animate_ghost
     366   00:5276                      
     367   00:5276                      .check_gus_dialog
     368   00:5276  3A 3E C0                LD A, (SHOWING_GUS_DIALOG)
     369   00:5279  FE 01                   CP 1
     370   00:527B  20 09                   JR nz, .check_john_dialog
     371   00:527D  CD 4C 47                CALL CLEAR_DIALOG_BOX
     372   00:5280  AF                      XOR A
     373   00:5281  32 3E C0                LD (SHOWING_GUS_DIALOG), A
     374   00:5284  18 1E                   JR .animate_ghost
     375   00:5286                      
     376   00:5286                      .check_john_dialog
     377   00:5286  3A 3D C0                LD A, (SHOWING_JOHN_DIALOG)
     378   00:5289  FE 01                   CP 1
     379   00:528B  20 09                   JR nz, .check_skull_dialog
     380   00:528D  CD 4C 47                CALL CLEAR_DIALOG_BOX
     381   00:5290  AF                      XOR A
     382   00:5291  32 3D C0                LD (SHOWING_JOHN_DIALOG), A
     383   00:5294  18 0E                   JR .animate_ghost
     384   00:5296                      
     385   00:5296                      .check_skull_dialog
     386   00:5296  3A 3B C0                LD A, (SHOWING_SKULL_STG1_DIALOG)
     387   00:5299  FE 01                   CP 1
     388   00:529B  20 07                   JR nz, .animate_ghost
     389   00:529D  CD 4C 47                CALL CLEAR_DIALOG_BOX
     390   00:52A0  AF                      XOR A
     391   00:52A1  32 3B C0                LD (SHOWING_SKULL_STG1_DIALOG), A
     392   00:52A4                      
     393   00:52A4                      .animate_ghost    
     394   00:52A4  3A 4A C0                LD A,(CHAR_GHOST_DEAD)
     395   00:52A7  FE 01                   CP $01
     396   00:52A9  CA 1D 53                JP Z,.continue
     397   00:52AC  DD 7E 11                LD A, (ix+SPR_GHOST_STG1+1)          ;cargamos la X del Fantasma
     398   00:52AF  2A 48 C0            	LD HL, (CHAR_SPEED_X_GHOST)
     399   00:52B2  85                  	ADD L					; Actualizamos la posicion en base a la velocidad
     400   00:52B3                          
     401   00:52B3  DD 77 11            	LD (ix+SPR_GHOST_STG1+1), A
     402   00:52B6  DD 77 15                LD (ix+SPR_GHOST_STG1+5), A
     403   00:52B9  FE 50                   CP $50
     404   00:52BB  CA C6 52                JP Z,.CHANGE_DIR_RIGHT
     405   00:52BE  FE AF                   CP $AF
     406   00:52C0  CA D3 52                JP Z,.CHANGE_DIR_LEFT
     407   00:52C3                          		
     408   00:52C3  C3 DC 52                JP .check_pattern
     409   00:52C6                      
     410   00:52C6                      .CHANGE_DIR_RIGHT:
     411   00:52C6  3E 01                   LD A, MOV_SPEED_GHOST
     412   00:52C8  32 48 C0            	LD (CHAR_SPEED_X_GHOST), A
     413   00:52CB  3E FF                   LD A,$FF
     414   00:52CD  32 4D C0                LD (CHAR_DIR_GHOST1),A
     415   00:52D0  C3 DC 52                JP .check_pattern
     416   00:52D3                      
     417   00:52D3                      .CHANGE_DIR_LEFT:
     418   00:52D3  3E FF                   LD A, -MOV_SPEED_GHOST
     419   00:52D5  32 48 C0            	LD (CHAR_SPEED_X_GHOST), A
     420   00:52D8  AF                      XOR A   ; Pone A a 0
     421   00:52D9  32 4D C0                LD (CHAR_DIR_GHOST1),A
     422   00:52DC                      
     423   00:52DC                      .check_pattern:
     424   00:52DC  3A 4D C0                LD A,(CHAR_DIR_GHOST1)
     425   00:52DF  FE FF                   CP $FF
     426   00:52E1  CA 02 53                JP Z,.check_pattern_RIGHT
     427   00:52E4  DD 7E 12                LD A, (ix+SPR_GHOST_STG1+2)       ; Cargamos el patrón y lo cambiamos
     428   00:52E7  FE 1C                   CP SPR_GHOST_STG1_PTRN_L1
     429   00:52E9  CA F7 52                jp z,.change_pattern_L
     430   00:52EC  DD 36 12 1C             LD (ix+SPR_GHOST_STG1+2),SPR_GHOST_STG1_PTRN_L1
     431   00:52F0  DD 36 16 20             LD (ix+SPR_GHOST_STG1+6),SPR_GHOST_STG1_PTRN_L1+4
     432   00:52F4  C3 1D 53                jp .continue
     433   00:52F7                      .change_pattern_L:
     434   00:52F7  DD 36 12 24             LD (ix+SPR_GHOST_STG1+2),SPR_GHOST_STG1_PTRN_L2
     435   00:52FB  DD 36 16 28             LD (ix+SPR_GHOST_STG1+6),SPR_GHOST_STG1_PTRN_L2+4
     436   00:52FF  C3 1D 53                jp .continue
     437   00:5302                      
     438   00:5302                      .check_pattern_RIGHT
     439   00:5302  DD 7E 12                LD A, (ix+SPR_GHOST_STG1+2)       ; Cargamos el patrón y lo cambiamos
     440   00:5305  FE 2C                   CP SPR_GHOST_STG1_PTRN_R1
     441   00:5307  CA 15 53                jp z,.change_pattern_R
     442   00:530A  DD 36 12 2C             LD (ix+SPR_GHOST_STG1+2),SPR_GHOST_STG1_PTRN_R1
     443   00:530E  DD 36 16 30             LD (ix+SPR_GHOST_STG1+6),SPR_GHOST_STG1_PTRN_R1+4
     444   00:5312  C3 1D 53                jp .continue
     445   00:5315                      .change_pattern_R:
     446   00:5315  DD 36 12 34             LD (ix+SPR_GHOST_STG1+2),SPR_GHOST_STG1_PTRN_R2
     447   00:5319  DD 36 16 38             LD (ix+SPR_GHOST_STG1+6),SPR_GHOST_STG1_PTRN_R2+4
     448   00:531D                      
     449   00:531D                      .continue:    
     450   00:531D  DD 7E 11                LD A, (ix+SPR_GHOST_STG1+1)     ; Cargamos la X
     451   00:5320  32 0A C0                LD (ENTITY_ENEMY1_POINTER+1), A
     452   00:5323  DD 7E 10                LD A, (ix+SPR_GHOST_STG1)           ; Cargamos la Y
     453   00:5326  32 0B C0                LD (ENTITY_ENEMY1_POINTER+2), A
     454   00:5329                          
     455   00:5329  FD 21 09 C0             LD IY, ENTITY_ENEMY1_POINTER
     456   00:532D  CD 49 41                CALL EnemyCollisionCheck
     457   00:5330  30 16                   JR NC, .move_shoot
     458   00:5332                          ; Collision
     459   00:5332  3A 03 C0                LD A, (ENTITY_PLAYER_POINTER+ENTITY_ENERGY)
     460   00:5335  D6 04                   SUB 4
     461   00:5337                          
     462   00:5337  32 03 C0                LD (ENTITY_PLAYER_POINTER+3), A
     463   00:533A  CD 21 48                call DRAW_ANDY_ENERGY
     464   00:533D  CD 1A 46                call BOUNCE_ANDY
     465   00:5340  3A 03 C0                LD A, (ENTITY_PLAYER_POINTER+ENTITY_ENERGY)
     466   00:5343  FE 00                   CP 0
     467   00:5345  CA D9 54                JP Z, game_over
     468   00:5348                      
     469   00:5348                      .move_shoot:
     470   00:5348  CD 3F 45                CALL MOVE_SHOOT
     471   00:534B                      .CHECK_GHOST:
     472   00:534B                          ; Comprobamos si hay colision con el fantasma
     473   00:534B  3A 4A C0                LD A,(CHAR_GHOST_DEAD)  ; si está muerto,no lo miramos
     474   00:534E  FE 01                   CP $01
     475   00:5350  CA 74 53                JP Z,.check_KB
     476   00:5353                      
     477   00:5353  DD 46 0C                LD B,(ix+SPR_SHOOT_P1)         ; Y del disparo
     478   00:5356  DD 4E 0D                LD C,(ix+SPR_SHOOT_P1+1)         ; X del disparo
     479   00:5359  DD 56 10                LD D,(ix+SPR_GHOST_STG1)         ; Y del fantasma 
     480   00:535C  DD 5E 11                LD E,(ix+SPR_GHOST_STG1+1)         ; X del fantasma
     481   00:535F  CD 78 41                call check_spr_collision
     482   00:5362  FE 01                   CP 1
     483   00:5364  C2 74 53                JP NZ,.check_KB
     484   00:5367                      
     485   00:5367                      .KILL_GHOST:
     486   00:5367  3E 01                   LD A,1
     487   00:5369  32 4A C0                LD (CHAR_GHOST_DEAD),A
     488   00:536C  DD 36 10 D9             LD (ix+SPR_GHOST_STG1),217    
     489   00:5370  DD 36 14 D9             LD (ix+SPR_GHOST_STG1+4),217    
     490   00:5374                      
     491   00:5374                      .check_KB:
     492   00:5374  76                      halt    
     493   00:5375                      	
     494   00:5375  F3                  	di       
     495   00:5376  DD E5                   PUSH IX
     496   00:5378  CD 39 4E            	call	PT3_ROUT			;envia datos a al PSG 	   
     497   00:537B  CD 41 4D            	call	PT3_PLAY			;prepara el siguiente trocito de cancion que sera enviada mas tarde al PSG
     498   00:537E  CD 2A 4F            	call ayFX_PLAY
     499   00:5381  DD E1                   POP IX
     500   00:5383  FB                      ei
     501   00:5384                      
     502   00:5384  3E 08                   ld a, 8
     503   00:5386  CD 41 01            	call SNSMAT   
     504   00:5389                          
     505   00:5389  4F                      LD C,A    
     506   00:538A                          
     507   00:538A  CB 79                   BIT KB_RIGHT, C			; La tecla presionada es RIGHT?
     508   00:538C  CC 87 43                call z, move_right
     509   00:538F                          
     510   00:538F  CB 61                   BIT KB_LEFT, C			; La tecla presionada es LEFT?
     511   00:5391  CC E6 43                call z, move_left
     512   00:5394                      
     513   00:5394  CB 69                   BIT KB_UP, C			; La tecla presionada es UP?
     514   00:5396  CC 12 43                call z, move_up
     515   00:5399                      
     516   00:5399  CB 71                   BIT KB_DOWN, C			; La tecla presionada es DOWN?
     517   00:539B  CC 4C 43                call z, move_down
     518   00:539E                      
     519   00:539E                      no_arrows:
     520   00:539E  CB 41                   BIT KB_SPACE, C			; La tecla presionada es SPACE
     521   00:53A0  CC AA 45                call z,SHOOT_MAIN_CHAR
     522   00:53A3                      
     523   00:53A3                          ;BIT KB_DEL, C			; La tecla presionada es DEL    
     524   00:53A3                          ;ret z
     525   00:53A3                          
     526   00:53A3  C3 1A 51                jp MAIN_LOOP
     527   00:53A6                      
     528   00:53A6                      
     529   00:53A6                      STAGE2:
     530   00:53A6  CD C7 47                CALL DISSCR
     531   00:53A9  76                      halt
     532   00:53AA  F3                  	di       
     533   00:53AB  DD E5                   PUSH IX
     534   00:53AD  CD 39 4E            	call	PT3_ROUT			;envia datos a al PSG 	   
     535   00:53B0  CD 41 4D            	call	PT3_PLAY			;prepara el siguiente trocito de cancion que sera enviada mas tarde al PSG
     536   00:53B3  DD E1               	POP IX
     537   00:53B5  FB                      ei
     538   00:53B6  21 00 80                LD HL, CEMENTER2
     539   00:53B9  22 E0 C0                LD (BITMAP), HL
     540   00:53BC  06 0D                   LD B, :CEMENTER2
     541   00:53BE                      
     542   00:53BE  CD 0F 42                call load_screen
     543   00:53C1  21 28 70                LD HL, mapa2
     544   00:53C4  22 DE C0                LD (MAPA), HL
     545   00:53C7                          
     546   00:53C7                          ; Ponemos el P1 por encima del marco
     547   00:53C7  DD 36 00 AF             LD (ix), 175      ; mask 0
     548   00:53CB  DD 36 04 AF             LD (ix+4), 175    ; mask 1
     549   00:53CF  DD 36 08 AF             LD (ix+8), 175    ; mask 2
     550   00:53D3                          
     551   00:53D3  DD 36 10 D9             LD (ix+SPR_GHOST_STG1),217  ; ocultamos el fantasma
     552   00:53D7  DD 36 14 D9             LD (ix+SPR_GHOST_STG1+4),217  ; ocultamos el fantasma
     553   00:53DB                          
     554   00:53DB  CD 9C 42                CALL DUMP_SPR_ALL
     555   00:53DE  CD E6 42                CALL DUMP_SPR_P1        
     556   00:53E1                          
     557   00:53E1                          ;LD HL, ANDY_MAX_ENERGY
     558   00:53E1                          ;LD A, (HL)  
     559   00:53E1                          ;INC A           ; level 1
     560   00:53E1                          ;LD (ENTITY_PLAYER_POINTER+3), A
     561   00:53E1                      
     562   00:53E1                          ;XOR a
     563   00:53E1                          ;LD (current_level), A
     564   00:53E1  CD 21 48                CALL DRAW_ANDY_ENERGY
     565   00:53E4                          
     566   00:53E4  CD C0 47                CALL ENASCR
     567   00:53E7                          
     568   00:53E7                      MAIN_LOOP2:
     569   00:53E7                          ;halt    
     570   00:53E7  76                      halt
     571   00:53E8  F3                  	di       
     572   00:53E9  DD E5                   PUSH IX
     573   00:53EB  CD 39 4E            	call	PT3_ROUT			;envia datos a al PSG 	   
     574   00:53EE  CD 41 4D            	call	PT3_PLAY			;prepara el siguiente trocito de cancion que sera enviada mas tarde al PSG
     575   00:53F1  CD 2A 4F            	call ayFX_PLAY
     576   00:53F4  DD E1                   POP IX
     577   00:53F6  FB                      ei
     578   00:53F7  DD 7E 00                LD A, (ix)    
     579   00:53FA  FE B0                   CP 176      ; Miramos si la Y es 160 para pasar a stg1
     580   00:53FC  C2 1E 54                JP NZ, .no_screen_change
     581   00:53FF                          ; Ponemos el P1 al principio de la pantalla 1
     582   00:53FF  DD 36 00 01             LD (ix), 1          ; P1.Y = 1
     583   00:5403  DD 36 04 01             LD (ix+4), 1
     584   00:5407  DD 36 08 01             LD (ix+8), 1
     585   00:540B                      
     586   00:540B  3A 4A C0                LD A, (CHAR_GHOST_DEAD)
     587   00:540E  FE 01                   CP $01
     588   00:5410  CA 1B 54                JP Z, .GHOST_DEAD
     589   00:5413  DD 36 10 0F             ld (ix+SPR_GHOST_STG1), $0F      ; Sprite 1 - Ghost
     590   00:5417  DD 36 14 0F             ld (ix+SPR_GHOST_STG1+4), $0F      ; Sprite 1 - Ghost
     591   00:541B                      .GHOST_DEAD:    
     592   00:541B  CD A5 50                CALL STAGE1
     593   00:541E                      
     594   00:541E                      .no_screen_change:
     595   00:541E                          
     596   00:541E                          ; check X,Y to play Black Sabbath
     597   00:541E                          ; Ya tenemos en A la Y
     598   00:541E  FE 6E                   CP STG2_TILE1_Y
     599   00:5420  C2 7C 54                JP NZ, .check_tile3
     600   00:5423  DD 7E 01                LD A, (ix+1)
     601   00:5426  FE 71                   CP STG2_TILE1_X
     602   00:5428  C2 52 54                JP NZ, .check_next_tile
     603   00:542B  3E 03                   LD A, 3
     604   00:542D  0E 00                   LD C, 0
     605   00:542F  CD F4 4E                CALL ayFX_INIT    
     606   00:5432                      
     607   00:5432  FD 21 1C C0             LD IY, tileDat
     608   00:5436  FD 36 00 C0             LD (IY + VDP_SX), 192      ; SXL - Tile 2
     609   00:543A  FD 36 02 00             LD (IY+VDP_SY), 0      ; SYL
     610   00:543E  FD 36 08 10             LD (IY+VDP_NX), 16      ; NX    
     611   00:5442  FD 36 04 70             LD (IY + VDP_DX), 112     ; DXL    
     612   00:5446  FD 36 06 70             LD (IY + VDP_DY), 112      ; DYL    
     613   00:544A  21 1C C0                LD HL, tileDat
     614   00:544D  CD 95 47                CALL VDPCMD
     615   00:5450  18 5C                   jr .continue
     616   00:5452                      
     617   00:5452                      .check_next_tile:
     618   00:5452  FE 80                   CP STG2_TILE2_X
     619   00:5454  C2 7C 54                JP NZ, .check_tile3
     620   00:5457  3E 04                   LD A, 4
     621   00:5459  0E 00                   LD C, 0
     622   00:545B  CD F4 4E                CALL ayFX_INIT    
     623   00:545E                      
     624   00:545E  FD 21 1C C0             LD IY, tileDat
     625   00:5462  FD 36 00 C0             LD (IY + VDP_SX), 192      ; SXL - Tile 2
     626   00:5466  FD 36 02 00             LD (IY+VDP_SY), 0      ; SYL
     627   00:546A  FD 36 08 10             LD (IY+VDP_NX), 16      ; NX    
     628   00:546E  FD 36 04 80             LD (IY + VDP_DX), 128     ; DXL    
     629   00:5472  FD 36 06 70             LD (IY + VDP_DY), 112      ; DYL    
     630   00:5476  21 1C C0                LD HL, tileDat
     631   00:5479  CD 95 47                CALL VDPCMD
     632   00:547C                      
     633   00:547C                      .check_tile3:
     634   00:547C  FE 8E                   CP STG2_TILE3_Y
     635   00:547E  C2 AE 54                JP NZ, .continue
     636   00:5481  DD 7E 01                LD A, (ix+1)
     637   00:5484  FE 80                   CP STG2_TILE3_X
     638   00:5486  C2 AE 54                JP NZ, .continue
     639   00:5489  3E 05                   LD A, 5
     640   00:548B  0E 00                   LD C, 0
     641   00:548D  CD F4 4E                CALL ayFX_INIT    
     642   00:5490                      
     643   00:5490  FD 21 1C C0             LD IY, tileDat
     644   00:5494  FD 36 00 C0             LD (IY + VDP_SX), 192      ; SXL - Tile 2
     645   00:5498  FD 36 02 00             LD (IY+VDP_SY), 0      ; SYL
     646   00:549C  FD 36 08 10             LD (IY+VDP_NX), 16      ; NX    
     647   00:54A0  FD 36 04 80             LD (IY + VDP_DX), 128     ; DXL    
     648   00:54A4  FD 36 06 90             LD (IY + VDP_DY), 144      ; DYL    
     649   00:54A8  21 1C C0                LD HL, tileDat
     650   00:54AB  CD 95 47                CALL VDPCMD
     651   00:54AE                      
     652   00:54AE                      .continue:
     653   00:54AE  CD CB 42                call DUMP_SPR_ATTS      
     654   00:54B1  CD 3F 45                CALL MOVE_SHOOT    
     655   00:54B4                      
     656   00:54B4  3E 08                   ld a, 8
     657   00:54B6  CD 41 01            	call SNSMAT   
     658   00:54B9  4F                      LD C,A    
     659   00:54BA                              
     660   00:54BA  CB 79                   BIT KB_RIGHT, C			; La tecla presionada es RIGHT?
     661   00:54BC  CC 87 43                call z, move_right
     662   00:54BF                          
     663   00:54BF  CB 61                   BIT KB_LEFT, C			; La tecla presionada es LEFT?
     664   00:54C1  CC E6 43                call z, move_left
     665   00:54C4                      
     666   00:54C4  CB 69                   BIT KB_UP, C			; La tecla presionada es UP?
     667   00:54C6  CC 12 43                call z, move_up
     668   00:54C9                      
     669   00:54C9  CB 71                   BIT KB_DOWN, C			; La tecla presionada es DOWN?
     670   00:54CB  CC 4C 43                call z, move_down
     671   00:54CE                      
     672   00:54CE  CB 41                   BIT KB_SPACE, C			; La tecla presionada es SPACE
     673   00:54D0  CC AA 45                call z,SHOOT_MAIN_CHAR
     674   00:54D3                      
     675   00:54D3  CB 59                   BIT KB_DEL, C			; La tecla presionada es DEL    
     676   00:54D5  C8                      ret z
     677   00:54D6                      
     678   00:54D6                      
     679   00:54D6                      
     680   00:54D6  C3 E7 53                jp MAIN_LOOP2
     681   00:54D9                      
     682   00:54D9                      game_over:
     683   00:54D9                          ;LD IY, game_over_strings
     684   00:54D9                          ;call print_strings_dialog_box
     685   00:54D9  CD 9F 00                call CHGET
     686   00:54DC  C3 D1 4F                JP START
     687   00:54DF                      
     688   00:54DF                      AFX:
     689   00:54DF  (01F6)                  incbin "sfx\cementer_sounds.afb"
     690   00:56D5                      SONG:
     691   00:56D5                      	;incbin "sfx\Nostalgy_sincabecera.pt3"
     692   00:56D5  (0EE7)                  incbin "sfx\test.pt3"
     693   00:65BC                          ;incbin "sfx\G-6sin_cabecera.pt3"
     694   00:65BC                      include "include\BTH_data.asm"
       1.  00:65BC                      SPRITE_P1_UP:
       2.  00:65BC                          ; UP 1        
       3.  00:65BC                          ; mask 0
       4.  00:65BC                          DB $07,$0F,$05,$1F,$1F,$3F,$3F,$7F
       4.  00:65BC  07 0F 05 1F 1F 3F 3F 7F 
       5.  00:65C4                          DB $00,$4F,$70,$38,$0C,$0E,$07,$04
       5.  00:65C4  00 4F 70 38 0C 0E 07 04 
       6.  00:65CC                          DB $E0,$F0,$A0,$F8,$F8,$F8,$FC,$FE
       6.  00:65CC  E0 F0 A0 F8 F8 F8 FC FE 
       7.  00:65D4                          DB $06,$F2,$1E,$3C,$30,$70,$C0,$00
       7.  00:65D4  06 F2 1E 3C 30 70 C0 00 
       8.  00:65DC                          ; mask 1
       9.  00:65DC                          DB $00,$00,$18,$00,$1F,$00,$00,$00
       9.  00:65DC  00 00 18 00 1F 00 00 00 
      10.  00:65E4                          DB $7F,$50,$4F,$3F,$0F,$0F,$07,$02
      10.  00:65E4  7F 50 4F 3F 0F 0F 07 02 
      11.  00:65EC                          DB $00,$00,$10,$00,$FC,$00,$00,$00
      11.  00:65EC  00 00 10 00 FC 00 00 00 
      12.  00:65F4                          DB $F2,$0E,$FE,$FC,$F0,$F0,$A0,$00
      12.  00:65F4  F2 0E FE FC F0 F0 A0 00 
      13.  00:65FC                          ; mask 2
      14.  00:65FC                          DB $00,$00,$1A,$00,$00,$00,$00,$00
      14.  00:65FC  00 00 1A 00 00 00 00 00 
      15.  00:6604                          DB $7F,$60,$00,$00,$00,$00,$07,$00
      15.  00:6604  7F 60 00 00 00 00 07 00 
      16.  00:660C                          DB $00,$00,$50,$00,$00,$00,$00,$00
      16.  00:660C  00 00 50 00 00 00 00 00 
      17.  00:6614                          DB $FA,$0E,$00,$00,$00,$00,$80,$00
      17.  00:6614  FA 0E 00 00 00 00 80 00 
      18.  00:661C                          
      19.  00:661C                          ; UP 2
      20.  00:661C                          ; mask 0
      21.  00:661C                          DB $07,$0F,$05,$1F,$1F,$3F,$3F,$7F
      21.  00:661C  07 0F 05 1F 1F 3F 3F 7F 
      22.  00:6624                          DB $10,$4F,$70,$38,$0C,$0E,$05,$00
      22.  00:6624  10 4F 70 38 0C 0E 05 00 
      23.  00:662C                          DB $E0,$F0,$A0,$F8,$F8,$F8,$FC,$FE
      23.  00:662C  E0 F0 A0 F8 F8 F8 FC FE 
      24.  00:6634                          DB $02,$F2,$1E,$3C,$30,$70,$E0,$40
      24.  00:6634  02 F2 1E 3C 30 70 E0 40 
      25.  00:663C                          ; mask 1
      26.  00:663C                          DB $00,$00,$18,$00,$1F,$00,$00,$00
      26.  00:663C  00 00 18 00 1F 00 00 00 
      27.  00:6644                          DB $4F,$70,$7F,$3F,$0F,$0F,$03,$00
      27.  00:6644  4F 70 7F 3F 0F 0F 03 00 
      28.  00:664C                          DB $00,$00,$10,$00,$FC,$00,$00,$00
      28.  00:664C  00 00 10 00 FC 00 00 00 
      29.  00:6654                          DB $FE,$06,$F2,$FC,$F0,$F0,$E0,$20
      29.  00:6654  FE 06 F2 FC F0 F0 E0 20 
      30.  00:665C                          ; mask 2
      31.  00:665C                          DB $00,$00,$1A,$00,$00,$00,$00,$00
      31.  00:665C  00 00 1A 00 00 00 00 00 
      32.  00:6664                          DB $6F,$70,$00,$00,$00,$00,$01,$00
      32.  00:6664  6F 70 00 00 00 00 01 00 
      33.  00:666C                          DB $00,$00,$50,$00,$00,$00,$00,$00
      33.  00:666C  00 00 50 00 00 00 00 00 
      34.  00:6674                          DB $FE,$0A,$00,$00,$00,$00,$E0,$00
      34.  00:6674  FE 0A 00 00 00 00 E0 00 
      35.  00:667C                          
      36.  00:667C                      SPRITE_P1_DOWN:
      37.  00:667C                          ; DOWN 1 - 00h
      38.  00:667C                          ; mask 0
      39.  00:667C                          DB $07,$0F,$04,$06,$0F,$07,$1F,$3F
      39.  00:667C  07 0F 04 06 0F 07 1F 3F 
      40.  00:6684                          DB $4C,$4E,$4E,$3C,$0C,$0E,$0F,$08
      40.  00:6684  4C 4E 4E 3C 0C 0E 0F 08 
      41.  00:668C                          DB $E0,$F0,$20,$20,$70,$E0,$F8,$FC
      41.  00:668C  E0 F0 20 20 70 E0 F8 FC 
      42.  00:6694                          DB $32,$72,$7E,$7C,$70,$F0,$C0,$00    
      42.  00:6694  32 72 7E 7C 70 F0 C0 00 
      43.  00:669C                          ; mask 1
      44.  00:669C                          DB $00,$00,$19,$19,$10,$3A,$3A,$78
      44.  00:669C  00 00 19 19 10 3A 3A 78 
      45.  00:66A4                          DB $5F,$5E,$7E,$3C,$0C,$0E,$0F,$04
      45.  00:66A4  5F 5E 7E 3C 0C 0E 0F 04 
      46.  00:66AC                          DB $00,$00,$90,$D8,$88,$58,$5C,$1E
      46.  00:66AC  00 00 90 D8 88 58 5C 1E 
      47.  00:66B4                          DB $F6,$FE,$FE,$3C,$30,$70,$A0,$00    
      47.  00:66B4  F6 FE FE 3C 30 70 A0 00 
      48.  00:66BC                          ; mask 2
      49.  00:66BC                          DB $00,$00,$1B,$00,$10,$00,$00,$00
      49.  00:66BC  00 00 1B 00 10 00 00 00 
      50.  00:66C4                          DB $6F,$6F,$7F,$3F,$0F,$0F,$0F,$00
      50.  00:66C4  6F 6F 7F 3F 0F 0F 0F 00 
      51.  00:66CC                          DB $00,$00,$D0,$00,$8C,$00,$00,$00
      51.  00:66CC  00 00 D0 00 8C 00 00 00 
      52.  00:66D4                          DB $FA,$7E,$7E,$BC,$B0,$70,$80,$00
      52.  00:66D4  FA 7E 7E BC B0 70 80 00 
      53.  00:66DC                          
      54.  00:66DC                          ; DOWN 2
      55.  00:66DC                          ; mask 0 - 0Ch    
      56.  00:66DC                          DB $07,$0F,$04,$06,$0F,$07,$1F,$3F
      56.  00:66DC  07 0F 04 06 0F 07 1F 3F 
      57.  00:66E4                          DB $4C,$4E,$7E,$3C,$0C,$0E,$05,$00
      57.  00:66E4  4C 4E 7E 3C 0C 0E 05 00 
      58.  00:66EC                          DB $E0,$F0,$20,$20,$70,$E0,$F8,$FC
      58.  00:66EC  E0 F0 20 20 70 E0 F8 FC 
      59.  00:66F4                          DB $32,$72,$72,$7C,$70,$F0,$E0,$40    
      59.  00:66F4  32 72 72 7C 70 F0 E0 40 
      60.  00:66FC                          ; mask 1
      61.  00:66FC                          DB $00,$00,$19,$19,$10,$3A,$3A,$78
      61.  00:66FC  00 00 19 19 10 3A 3A 78 
      62.  00:6704                          DB $5F,$7E,$7E,$3C,$0C,$0E,$03,$00
      62.  00:6704  5F 7E 7E 3C 0C 0E 03 00 
      63.  00:670C                          DB $00,$00,$90,$D8,$88,$58,$5C,$1E
      63.  00:670C  00 00 90 D8 88 58 5C 1E 
      64.  00:6714                          DB $F6,$F6,$FE,$3C,$30,$70,$E0,$20    
      64.  00:6714  F6 F6 FE 3C 30 70 E0 20 
      65.  00:671C                          ; mask 2
      66.  00:671C                          DB $00,$00,$1B,$00,$10,$00,$00,$00
      66.  00:671C  00 00 1B 00 10 00 00 00 
      67.  00:6724                          DB $6F,$7F,$7F,$3F,$0F,$0F,$01,$00
      67.  00:6724  6F 7F 7F 3F 0F 0F 01 00 
      68.  00:672C                          DB $00,$00,$D0,$00,$8C,$00,$00,$00
      68.  00:672C  00 00 D0 00 8C 00 00 00 
      69.  00:6734                          DB $FA,$7A,$7E,$BC,$B0,$70,$E0,$00
      69.  00:6734  FA 7A 7E BC B0 70 E0 00 
      70.  00:673C                      
      71.  00:673C                      SPRITE_P1_LEFT:         
      72.  00:673C                          ; --- Slot 3
      73.  00:673C                          ; mask 0
      74.  00:673C                          DB $07,$0F,$02,$05,$07,$07,$0F,$0F
      74.  00:673C  07 0F 02 05 07 07 0F 0F 
      75.  00:6744                          DB $07,$03,$03,$03,$01,$03,$03,$04
      75.  00:6744  07 03 03 03 01 03 03 04 
      76.  00:674C                          DB $E0,$F0,$80,$00,$A0,$E0,$C0,$C0
      76.  00:674C  E0 F0 80 00 A0 E0 C0 C0 
      77.  00:6754                          DB $E0,$B0,$70,$F0,$F0,$F0,$C0,$00    
      77.  00:6754  E0 B0 70 F0 F0 F0 C0 00 
      78.  00:675C                          ; mask 1
      79.  00:675C                          DB $00,$00,$18,$1A,$08,$0A,$12,$10
      79.  00:675C  00 00 18 1A 08 0A 12 10 
      80.  00:6764                          DB $08,$03,$02,$02,$01,$03,$03,$03
      80.  00:6764  08 03 02 02 01 03 03 03 
      81.  00:676C                          DB $00,$00,$78,$F8,$5C,$1C,$7E,$7E
      81.  00:676C  00 00 78 F8 5C 1C 7E 7E 
      82.  00:6774                          DB $FE,$3E,$7E,$7C,$F8,$F8,$B0,$00
      82.  00:6774  FE 3E 7E 7C F8 F8 B0 00 
      83.  00:677C                          ; mask 2
      84.  00:677C                          DB $00,$00,$1D,$00,$28,$00,$00,$00
      84.  00:677C  00 00 1D 00 28 00 00 00 
      85.  00:6784                          DB $00,$07,$06,$06,$07,$07,$03,$00
      85.  00:6784  00 07 06 06 07 07 03 00 
      86.  00:678C                          DB $00,$00,$78,$00,$5C,$00,$00,$00
      86.  00:678C  00 00 78 00 5C 00 00 00 
      87.  00:6794                          DB $00,$7E,$FE,$7C,$F8,$F8,$80,$00
      87.  00:6794  00 7E FE 7C F8 F8 80 00 
      88.  00:679C                          ; --- Slot 4
      89.  00:679C                          ; mask 0
      90.  00:679C                          DB $07,$0F,$02,$05,$07,$07,$0F,$0F
      90.  00:679C  07 0F 02 05 07 07 0F 0F 
      91.  00:67A4                          DB $07,$03,$03,$03,$01,$03,$04,$00
      91.  00:67A4  07 03 03 03 01 03 04 00 
      92.  00:67AC                          DB $E0,$F0,$80,$00,$A0,$E0,$C0,$C0
      92.  00:67AC  E0 F0 80 00 A0 E0 C0 C0 
      93.  00:67B4                          DB $E0,$B0,$D0,$D0,$F0,$F0,$E0,$40
      93.  00:67B4  E0 B0 D0 D0 F0 F0 E0 40 
      94.  00:67BC                          ; mask 1
      95.  00:67BC                          DB $00,$00,$18,$1A,$08,$0A,$12,$10
      95.  00:67BC  00 00 18 1A 08 0A 12 10 
      96.  00:67C4                          DB $08,$03,$03,$03,$01,$03,$03,$00
      96.  00:67C4  08 03 03 03 01 03 03 00 
      97.  00:67CC                          DB $00,$00,$78,$F8,$5C,$1C,$7E,$7E
      97.  00:67CC  00 00 78 F8 5C 1C 7E 7E 
      98.  00:67D4                          DB $FE,$3E,$9E,$9C,$98,$F8,$E0,$30
      98.  00:67D4  FE 3E 9E 9C 98 F8 E0 30 
      99.  00:67DC                          ; mask 2
     100.  00:67DC                          DB $00,$00,$1D,$00,$28,$00,$00,$00
     100.  00:67DC  00 00 1D 00 28 00 00 00 
     101.  00:67E4                          DB $00,$07,$07,$07,$07,$07,$00,$00
     101.  00:67E4  00 07 07 07 07 07 00 00 
     102.  00:67EC                          DB $00,$00,$78,$00,$5C,$00,$00,$00
     102.  00:67EC  00 00 78 00 5C 00 00 00 
     103.  00:67F4                          DB $00,$7E,$BE,$BC,$98,$F8,$E0,$00
     103.  00:67F4  00 7E BE BC 98 F8 E0 00 
     104.  00:67FC                      
     105.  00:67FC                      SPRITE_P1_RIGHT:
     106.  00:67FC                          ; --- Slot 0
     107.  00:67FC                          ; mask 0
     108.  00:67FC                          DB $07,$0F,$01,$00,$05,$07,$03,$03
     108.  00:67FC  07 0F 01 00 05 07 03 03 
     109.  00:6804                          DB $07,$0D,$0E,$0F,$0F,$0F,$03,$00
     109.  00:6804  07 0D 0E 0F 0F 0F 03 00 
     110.  00:680C                          DB $E0,$F0,$40,$A0,$E0,$E0,$F0,$F0
     110.  00:680C  E0 F0 40 A0 E0 E0 F0 F0 
     111.  00:6814                          DB $E0,$C0,$C0,$C0,$80,$C0,$C0,$20
     111.  00:6814  E0 C0 C0 C0 80 C0 C0 20 
     112.  00:681C                          ; mask 1
     113.  00:681C                          DB $00,$00,$1E,$1F,$3A,$38,$7E,$7E
     113.  00:681C  00 00 1E 1F 3A 38 7E 7E 
     114.  00:6824                          DB $7F,$7C,$7E,$3E,$1F,$1F,$0D,$00
     114.  00:6824  7F 7C 7E 3E 1F 1F 0D 00 
     115.  00:682C                          DB $00,$00,$18,$58,$10,$50,$48,$08
     115.  00:682C  00 00 18 58 10 50 48 08 
     116.  00:6834                          DB $10,$C0,$40,$40,$80,$C0,$C0,$C0
     116.  00:6834  10 C0 40 40 80 C0 C0 C0 
     117.  00:683C                          ; mask 2
     118.  00:683C                          DB $00,$00,$1E,$00,$3A,$00,$00,$00
     118.  00:683C  00 00 1E 00 3A 00 00 00 
     119.  00:6844                          DB $00,$7E,$7F,$3E,$1F,$1F,$01,$00
     119.  00:6844  00 7E 7F 3E 1F 1F 01 00 
     120.  00:684C                          DB $00,$00,$B8,$00,$14,$00,$00,$00
     120.  00:684C  00 00 B8 00 14 00 00 00 
     121.  00:6854                          DB $00,$E0,$60,$60,$E0,$E0,$C0,$00
     121.  00:6854  00 E0 60 60 E0 E0 C0 00 
     122.  00:685C                          
     123.  00:685C                          ; --- Slot 2
     124.  00:685C                         ; mask 0
     125.  00:685C                          DB $07,$0F,$01,$00,$05,$07,$03,$03
     125.  00:685C  07 0F 01 00 05 07 03 03 
     126.  00:6864                          DB $07,$0D,$0B,$0B,$0F,$0F,$07,$02
     126.  00:6864  07 0D 0B 0B 0F 0F 07 02 
     127.  00:686C                          DB $E0,$F0,$40,$A0,$E0,$E0,$F0,$F0
     127.  00:686C  E0 F0 40 A0 E0 E0 F0 F0 
     128.  00:6874                          DB $E0,$C0,$C0,$C0,$80,$C0,$20,$00
     128.  00:6874  E0 C0 C0 C0 80 C0 20 00 
     129.  00:687C                          ; mask 1
     130.  00:687C                          DB $00,$00,$1E,$1F,$3A,$38,$7E,$7E
     130.  00:687C  00 00 1E 1F 3A 38 7E 7E 
     131.  00:6884                          DB $7F,$7C,$79,$39,$19,$1F,$07,$0C
     131.  00:6884  7F 7C 79 39 19 1F 07 0C 
     132.  00:688C                          DB $00,$00,$18,$58,$10,$50,$48,$08
     132.  00:688C  00 00 18 58 10 50 48 08 
     133.  00:6894                          DB $10,$C0,$C0,$C0,$80,$C0,$C0,$00
     133.  00:6894  10 C0 C0 C0 80 C0 C0 00 
     134.  00:689C                              ; mask 2
     135.  00:689C                          DB $00,$00,$1E,$00,$3A,$00,$00,$00
     135.  00:689C  00 00 1E 00 3A 00 00 00 
     136.  00:68A4                          DB $00,$7E,$7D,$3D,$19,$1F,$07,$00
     136.  00:68A4  00 7E 7D 3D 19 1F 07 00 
     137.  00:68AC                          DB $00,$00,$B8,$00,$14,$00,$00,$00
     137.  00:68AC  00 00 B8 00 14 00 00 00 
     138.  00:68B4                          DB $00,$E0,$E0,$E0,$E0,$E0,$00,$00
     138.  00:68B4  00 E0 E0 E0 E0 E0 00 00 
     139.  00:68BC                          
     140.  00:68BC                      SPRITE_PATTERN:    
     141.  00:68BC                          ; P1 - DOWN 1 
     142.  00:68BC                          ; DOWN 1 - 00h
     143.  00:68BC                          ; mask 0
     144.  00:68BC                          DB $07,$0F,$04,$06,$0F,$07,$1F,$3F
     144.  00:68BC  07 0F 04 06 0F 07 1F 3F 
     145.  00:68C4                          DB $4C,$4E,$4E,$3C,$0C,$0E,$0F,$08
     145.  00:68C4  4C 4E 4E 3C 0C 0E 0F 08 
     146.  00:68CC                          DB $E0,$F0,$20,$20,$70,$E0,$F8,$FC
     146.  00:68CC  E0 F0 20 20 70 E0 F8 FC 
     147.  00:68D4                          DB $32,$72,$7E,$7C,$70,$F0,$C0,$00    
     147.  00:68D4  32 72 7E 7C 70 F0 C0 00 
     148.  00:68DC                          ; mask 1
     149.  00:68DC                          DB $00,$00,$19,$19,$10,$3A,$3A,$78
     149.  00:68DC  00 00 19 19 10 3A 3A 78 
     150.  00:68E4                          DB $5F,$5E,$7E,$3C,$0C,$0E,$0F,$04
     150.  00:68E4  5F 5E 7E 3C 0C 0E 0F 04 
     151.  00:68EC                          DB $00,$00,$90,$D8,$88,$58,$5C,$1E
     151.  00:68EC  00 00 90 D8 88 58 5C 1E 
     152.  00:68F4                          DB $F6,$FE,$FE,$3C,$30,$70,$A0,$00    
     152.  00:68F4  F6 FE FE 3C 30 70 A0 00 
     153.  00:68FC                          ; mask 2
     154.  00:68FC                          DB $00,$00,$1B,$00,$10,$00,$00,$00
     154.  00:68FC  00 00 1B 00 10 00 00 00 
     155.  00:6904                          DB $6F,$6F,$7F,$3F,$0F,$0F,$0F,$00
     155.  00:6904  6F 6F 7F 3F 0F 0F 0F 00 
     156.  00:690C                          DB $00,$00,$D0,$00,$8C,$00,$00,$00
     156.  00:690C  00 00 D0 00 8C 00 00 00 
     157.  00:6914                          DB $FA,$7E,$7E,$BC,$B0,$70,$80,$00
     157.  00:6914  FA 7E 7E BC B0 70 80 00 
     158.  00:691C                          
     159.  00:691C                          ; DOWN 2
     160.  00:691C                          ; mask 0 - 0Ch    
     161.  00:691C                          DB $07,$0F,$04,$06,$0F,$07,$1F,$3F
     161.  00:691C  07 0F 04 06 0F 07 1F 3F 
     162.  00:6924                          DB $4C,$4E,$7E,$3C,$0C,$0E,$05,$00
     162.  00:6924  4C 4E 7E 3C 0C 0E 05 00 
     163.  00:692C                          DB $E0,$F0,$20,$20,$70,$E0,$F8,$FC
     163.  00:692C  E0 F0 20 20 70 E0 F8 FC 
     164.  00:6934                          DB $32,$72,$72,$7C,$70,$F0,$E0,$40    
     164.  00:6934  32 72 72 7C 70 F0 E0 40 
     165.  00:693C                          ; mask 1
     166.  00:693C                          DB $00,$00,$19,$19,$10,$3A,$3A,$78
     166.  00:693C  00 00 19 19 10 3A 3A 78 
     167.  00:6944                          DB $5F,$7E,$7E,$3C,$0C,$0E,$03,$00
     167.  00:6944  5F 7E 7E 3C 0C 0E 03 00 
     168.  00:694C                          DB $00,$00,$90,$D8,$88,$58,$5C,$1E
     168.  00:694C  00 00 90 D8 88 58 5C 1E 
     169.  00:6954                          DB $F6,$F6,$FE,$3C,$30,$70,$E0,$20    
     169.  00:6954  F6 F6 FE 3C 30 70 E0 20 
     170.  00:695C                          ; mask 2
     171.  00:695C                          DB $00,$00,$1B,$00,$10,$00,$00,$00
     171.  00:695C  00 00 1B 00 10 00 00 00 
     172.  00:6964                          DB $6F,$7F,$7F,$3F,$0F,$0F,$01,$00
     172.  00:6964  6F 7F 7F 3F 0F 0F 01 00 
     173.  00:696C                          DB $00,$00,$D0,$00,$8C,$00,$00,$00
     173.  00:696C  00 00 D0 00 8C 00 00 00 
     174.  00:6974                          DB $FA,$7A,$7E,$BC,$B0,$70,$E0,$00
     174.  00:6974  FA 7A 7E BC B0 70 E0 00 
     175.  00:697C                          
     176.  00:697C                          ; Antichrist - RIGHT
     177.  00:697C                          ; mask 0 - 18h    
     178.  00:697C                          DB $00,$00,$00,$01,$01,$01,$01,$01
     178.  00:697C  00 00 00 01 01 01 01 01 
     179.  00:6984                          DB $01,$01,$07,$07,$01,$01,$00,$00
     179.  00:6984  01 01 07 07 01 01 00 00 
     180.  00:698C                          DB $00,$00,$00,$80,$80,$80,$80,$80
     180.  00:698C  00 00 00 80 80 80 80 80 
     181.  00:6994                          DB $80,$80,$E0,$E0,$80,$80,$00,$00
     181.  00:6994  80 80 E0 E0 80 80 00 00 
     182.  00:699C                      
     183.  00:699C                          ;Ghost 1 Left - 1CH
     184.  00:699C                          ; mask 0
     185.  00:699C                          DB $03,$04,$08,$68,$B5,$90,$50,$40
     185.  00:699C  03 04 08 68 B5 90 50 40 
     186.  00:69A4                          DB $22,$20,$10,$10,$08,$06,$03,$00
     186.  00:69A4  22 20 10 10 08 06 03 00 
     187.  00:69AC                          DB $C0,$E0,$70,$36,$BB,$33,$26,$06
     187.  00:69AC  C0 E0 70 36 BB 33 26 06 
     188.  00:69B4                          DB $0C,$18,$3E,$19,$07,$0C,$F8,$E0
     188.  00:69B4  0C 18 3E 19 07 0C F8 E0 
     189.  00:69BC                          ; mask 1    20h
     190.  00:69BC                          DB $00,$07,$0F,$6F,$DF,$FF,$6F,$7F
     190.  00:69BC  00 07 0F 6F DF FF 6F 7F 
     191.  00:69C4                          DB $3F,$3F,$1F,$1F,$0F,$05,$03,$00
     191.  00:69C4  3F 3F 1F 1F 0F 05 03 00 
     192.  00:69CC                          DB $00,$20,$90,$D6,$DD,$DD,$DA,$FA
     192.  00:69CC  00 20 90 D6 DD DD DA FA 
     193.  00:69D4                          DB $F4,$E8,$CE,$EF,$FB,$F4,$18,$00
     193.  00:69D4  F4 E8 CE EF FB F4 18 00 
     194.  00:69DC                          
     195.  00:69DC                          ; Ghost 2 Left - 24h
     196.  00:69DC                          ; mask 0    24-h
     197.  00:69DC                          DB $03,$04,$08,$08,$65,$B0,$90,$40
     197.  00:69DC  03 04 08 08 65 B0 90 40 
     198.  00:69E4                          DB $22,$20,$10,$10,$08,$06,$01,$00
     198.  00:69E4  22 20 10 10 08 06 01 00 
     199.  00:69EC                          DB $C0,$E0,$70,$30,$B6,$3B,$27,$06
     199.  00:69EC  C0 E0 70 30 B6 3B 27 06 
     200.  00:69F4                          DB $0C,$18,$3C,$1A,$06,$0C,$F0,$C0
     200.  00:69F4  0C 18 3C 1A 06 0C F0 C0 
     201.  00:69FC                          ; mask 1    28h
     202.  00:69FC                          DB $00,$07,$0F,$0F,$6F,$DF,$EF,$7F
     202.  00:69FC  00 07 0F 0F 6F DF EF 7F 
     203.  00:6A04                          DB $3F,$3F,$1F,$1F,$0F,$05,$01,$00
     203.  00:6A04  3F 3F 1F 1F 0F 05 01 00 
     204.  00:6A0C                          DB $00,$20,$90,$D0,$D6,$DD,$D9,$FA
     204.  00:6A0C  00 20 90 D0 D6 DD D9 FA 
     205.  00:6A14                          DB $F4,$E8,$CC,$EE,$FA,$F4,$30,$00
     205.  00:6A14  F4 E8 CC EE FA F4 30 00 
     206.  00:6A1C                      
     207.  00:6A1C                          ; Ghost 1 Right - 2Ch
     208.  00:6A1C                          ; mask 0
     209.  00:6A1C                          DB $03,$07,$0E,$6C,$DD,$CC,$64,$60
     209.  00:6A1C  03 07 0E 6C DD CC 64 60 
     210.  00:6A24                          DB $30,$18,$7C,$98,$E0,$30,$1F,$07
     210.  00:6A24  30 18 7C 98 E0 30 1F 07 
     211.  00:6A2C                          DB $C0,$20,$10,$16,$AD,$09,$0A,$02
     211.  00:6A2C  C0 20 10 16 AD 09 0A 02 
     212.  00:6A34                          DB $44,$04,$08,$08,$10,$60,$C0,$00
     212.  00:6A34  44 04 08 08 10 60 C0 00 
     213.  00:6A3C                          ; mask 1    - 30h
     214.  00:6A3C                          DB $00,$04,$09,$6B,$BB,$BB,$5B,$5F
     214.  00:6A3C  00 04 09 6B BB BB 5B 5F 
     215.  00:6A44                          DB $2F,$17,$73,$F7,$DF,$2F,$18,$00
     215.  00:6A44  2F 17 73 F7 DF 2F 18 00 
     216.  00:6A4C                          DB $00,$E0,$F0,$F6,$FB,$FF,$F6,$FE
     216.  00:6A4C  00 E0 F0 F6 FB FF F6 FE 
     217.  00:6A54                          DB $FC,$FC,$F8,$F8,$F0,$A0,$C0,$00
     217.  00:6A54  FC FC F8 F8 F0 A0 C0 00 
     218.  00:6A5C                          
     219.  00:6A5C                          ; Ghost 2 Right - 34h
     220.  00:6A5C                          ; mask 0
     221.  00:6A5C                          DB $03,$07,$0E,$0C,$6D,$DC,$E4,$60
     221.  00:6A5C  03 07 0E 0C 6D DC E4 60 
     222.  00:6A64                          DB $30,$18,$3C,$58,$60,$30,$0F,$03
     222.  00:6A64  30 18 3C 58 60 30 0F 03 
     223.  00:6A6C                          DB $C0,$20,$10,$10,$A6,$0D,$09,$02
     223.  00:6A6C  C0 20 10 10 A6 0D 09 02 
     224.  00:6A74                          DB $44,$04,$08,$08,$10,$60,$80,$00
     224.  00:6A74  44 04 08 08 10 60 80 00 
     225.  00:6A7C                          ; mask 1    38h
     226.  00:6A7C                          DB $00,$04,$09,$0B,$6B,$BB,$9B,$5F
     226.  00:6A7C  00 04 09 0B 6B BB 9B 5F 
     227.  00:6A84                          DB $2F,$17,$33,$77,$5F,$2F,$0C,$00
     227.  00:6A84  2F 17 33 77 5F 2F 0C 00 
     228.  00:6A8C                          DB $00,$E0,$F0,$F0,$F6,$FB,$F7,$FE
     228.  00:6A8C  00 E0 F0 F0 F6 FB F7 FE 
     229.  00:6A94                          DB $FC,$FC,$F8,$F8,$F0,$A0,$80,$00
     229.  00:6A94  FC FC F8 F8 F0 A0 80 00 
     230.  00:6A9C                          
     231.  00:6A9C                      
     232.  00:6A9C                          ; Esqueleto Left - 1
     233.  00:6A9C                          ; mask 0 - 3Ch
     234.  00:6A9C                          DB $1F,$1B,$2E,$24,$3F,$1F,$1F,$00
     234.  00:6A9C  1F 1B 2E 24 3F 1F 1F 00 
     235.  00:6AA4                          DB $03,$05,$09,$04,$01,$02,$02,$04
     235.  00:6AA4  03 05 09 04 01 02 02 04 
     236.  00:6AAC                          DB $80,$C0,$C0,$C0,$80,$00,$00,$80
     236.  00:6AAC  80 C0 C0 C0 80 00 00 80 
     237.  00:6AB4                          DB $E0,$D0,$C8,$C4,$C0,$20,$20,$40
     237.  00:6AB4  E0 D0 C8 C4 C0 20 20 40 
     238.  00:6ABC                          ; mask 1 - 40h
     239.  00:6ABC                          DB $1F,$1F,$3F,$3F,$3F,$1E,$0A,$00
     239.  00:6ABC  1F 1F 3F 3F 3F 1E 0A 00 
     240.  00:6AC4                          DB $03,$05,$09,$04,$01,$00,$00,$00
     240.  00:6AC4  03 05 09 04 01 00 00 00 
     241.  00:6ACC                          DB $00,$80,$80,$80,$00,$00,$00,$00
     241.  00:6ACC  00 80 80 80 00 00 00 00 
     242.  00:6AD4                          DB $80,$10,$88,$84,$80,$00,$00,$00
     242.  00:6AD4  80 10 88 84 80 00 00 00 
     243.  00:6ADC                      
     244.  00:6ADC                          ; Esqueleto Left - 2
     245.  00:6ADC                          ; mask 0 - 44h
     246.  00:6ADC                          ; mask 0
     247.  00:6ADC                          DB $0F,$0D,$17,$12,$1F,$0F,$0F,$00
     247.  00:6ADC  0F 0D 17 12 1F 0F 0F 00 
     248.  00:6AE4                          DB $03,$05,$09,$10,$01,$06,$08,$00
     248.  00:6AE4  03 05 09 10 01 06 08 00 
     249.  00:6AEC                          DB $C0,$E0,$60,$60,$C0,$80,$80,$80
     249.  00:6AEC  C0 E0 60 60 C0 80 80 80 
     250.  00:6AF4                          DB $E0,$D0,$C8,$D0,$C0,$20,$20,$50
     250.  00:6AF4  E0 D0 C8 D0 C0 20 20 50 
     251.  00:6AFC                          ; mask 1 - 48h
     252.  00:6AFC                          DB $0F,$0F,$1F,$1F,$1F,$0F,$05,$00
     252.  00:6AFC  0F 0F 1F 1F 1F 0F 05 00 
     253.  00:6B04                          DB $03,$05,$09,$10,$01,$00,$00,$00
     253.  00:6B04  03 05 09 10 01 00 00 00 
     254.  00:6B0C                          DB $80,$C0,$C0,$C0,$80,$00,$00,$00
     254.  00:6B0C  80 C0 C0 C0 80 00 00 00 
     255.  00:6B14                          DB $80,$10,$88,$90,$80,$00,$20,$40
     255.  00:6B14  80 10 88 90 80 00 20 40 
     256.  00:6B1C                          
     257.  00:6B1C                          ; Esqueleto Right - 1
     258.  00:6B1C                          ; mask 0 - 4Ch
     259.  00:6B1C                          DB $01,$03,$03,$03,$01,$00,$00,$01
     259.  00:6B1C  01 03 03 03 01 00 00 01 
     260.  00:6B24                          DB $07,$0B,$13,$23,$03,$04,$04,$02
     260.  00:6B24  07 0B 13 23 03 04 04 02 
     261.  00:6B2C                          DB $F8,$D8,$74,$24,$FC,$F8,$F8,$00
     261.  00:6B2C  F8 D8 74 24 FC F8 F8 00 
     262.  00:6B34                          DB $C0,$A0,$90,$20,$80,$40,$40,$20
     262.  00:6B34  C0 A0 90 20 80 40 40 20 
     263.  00:6B3C                          ; mask 1 - 50h
     264.  00:6B3C                          DB $00,$01,$01,$01,$00,$00,$00,$00
     264.  00:6B3C  00 01 01 01 00 00 00 00 
     265.  00:6B44                          DB $01,$08,$11,$21,$01,$00,$00,$00
     265.  00:6B44  01 08 11 21 01 00 00 00 
     266.  00:6B4C                          DB $F8,$F8,$FC,$FC,$FC,$78,$50,$00
     266.  00:6B4C  F8 F8 FC FC FC 78 50 00 
     267.  00:6B54                          DB $C0,$A0,$90,$20,$80,$00,$00,$00
     267.  00:6B54  C0 A0 90 20 80 00 00 00 
     268.  00:6B5C                          
     269.  00:6B5C                          ; Esqueleto Right - 2
     270.  00:6B5C                          ; mask 0 - 54h
     271.  00:6B5C                          DB $03,$07,$06,$06,$03,$01,$01,$01
     271.  00:6B5C  03 07 06 06 03 01 01 01 
     272.  00:6B64                          DB $07,$0B,$13,$0B,$03,$04,$04,$0A
     272.  00:6B64  07 0B 13 0B 03 04 04 0A 
     273.  00:6B6C                          DB $F0,$B0,$E8,$48,$F8,$F0,$F0,$00
     273.  00:6B6C  F0 B0 E8 48 F8 F0 F0 00 
     274.  00:6B74                          DB $C0,$A0,$90,$08,$80,$60,$10,$00
     274.  00:6B74  C0 A0 90 08 80 60 10 00 
     275.  00:6B7C                          ; mask 1 - 58h
     276.  00:6B7C                          DB $01,$03,$03,$03,$01,$00,$00,$00
     276.  00:6B7C  01 03 03 03 01 00 00 00 
     277.  00:6B84                          DB $01,$08,$11,$09,$01,$00,$04,$02
     277.  00:6B84  01 08 11 09 01 00 04 02 
     278.  00:6B8C                          DB $F0,$F0,$F8,$F8,$F8,$F0,$A0,$00
     278.  00:6B8C  F0 F0 F8 F8 F8 F0 A0 00 
     279.  00:6B94                          DB $C0,$A0,$90,$08,$80,$00,$00,$00
     279.  00:6B94  C0 A0 90 08 80 00 00 00 
     280.  00:6B9C                      
     281.  00:6B9C                      SPRITE_COLOR_TABLE:       
     282.  00:6B9C                           ;P1 - DOWN 1
     283.  00:6B9C                          ;DOWN 1
     284.  00:6B9C                          ; attr 0
     285.  00:6B9C                          DB $05,$05,$0A,$0B,$0B,$0B,$0B,$0B
     285.  00:6B9C  05 05 0A 0B 0B 0B 0B 0B 
     286.  00:6BA4                          DB $04,$04,$04,$0A,$0A,$0A,$08,$08    
     286.  00:6BA4  04 04 04 0A 0A 0A 08 08 
     287.  00:6BAC                          ; attr 1
     288.  00:6BAC                          DB $00,$00,$44,$45,$45,$45,$45,$45
     288.  00:6BAC  00 00 44 45 45 45 45 45 
     289.  00:6BB4                          DB $4A,$4A,$4A,$44,$44,$44,$45,$45    
     289.  00:6BB4  4A 4A 4A 44 44 44 45 45 
     290.  00:6BBC                          ; attr 2
     291.  00:6BBC                          DB $00,$00,$41,$00,$40,$00,$00,$00
     291.  00:6BBC  00 00 41 00 40 00 00 00 
     292.  00:6BC4                          DB $41,$41,$41,$41,$41,$41,$42,$00
     292.  00:6BC4  41 41 41 41 41 41 42 00 
     293.  00:6BCC                               
     294.  00:6BCC                          ; Cada posición ha de corresponder con la tabla de atributos    
     295.  00:6BCC                          ; Disparo - antichrist    
     296.  00:6BCC                          DB $00,$00,$00,$0A,$0A,$0A,$0A,$0A
     296.  00:6BCC  00 00 00 0A 0A 0A 0A 0A 
     297.  00:6BD4                          DB $0A,$0A,$0A,$0A,$0A,$0A,$00,$00
     297.  00:6BD4  0A 0A 0A 0A 0A 0A 00 00 
     298.  00:6BDC                          ; Fantasma
     299.  00:6BDC                          ; attr 0
     300.  00:6BDC                          DB $0F,$08,$08,$08,$08,$08,$08,$08
     300.  00:6BDC  0F 08 08 08 08 08 08 08 
     301.  00:6BE4                          DB $08,$08,$08,$08,$08,$08,$08,$0F
     301.  00:6BE4  08 08 08 08 08 08 08 0F 
     302.  00:6BEC                          ; attr 1
     303.  00:6BEC                          DB $00,$47,$47,$47,$47,$47,$47,$47
     303.  00:6BEC  00 47 47 47 47 47 47 47 
     304.  00:6BF4                          DB $47,$47,$47,$47,$47,$47,$47,$00
     304.  00:6BF4  47 47 47 47 47 47 47 00 
     305.  00:6BFC                          
     306.  00:6BFC                          
     307.  00:6BFC                          ; Esqueleto Left 1
     308.  00:6BFC                          ; attr 0
     309.  00:6BFC                          DB $0E,$0E,$0E,$0E,$0E,$0E,$0E,$0E
     309.  00:6BFC  0E 0E 0E 0E 0E 0E 0E 0E 
     310.  00:6C04                          DB $0E,$0E,$0E,$0E,$0E,$0F,$0F,$0F
     310.  00:6C04  0E 0E 0E 0E 0E 0F 0F 0F 
     311.  00:6C0C                          ; attr 1
     312.  00:6C0C                          DB $41,$49,$49,$49,$41,$41,$41,$00
     312.  00:6C0C  41 49 49 49 41 41 41 00 
     313.  00:6C14                          DB $41,$41,$41,$41,$41,$00,$00,$00
     313.  00:6C14  41 41 41 41 41 00 00 00 
     314.  00:6C1C                      
     315.  00:6C1C                      SPRITE_COLOR_P1_UP:
     316.  00:6C1C                          ;UP 1
     317.  00:6C1C                          ; attr 0
     318.  00:6C1C                          DB $05,$05,$0A,$05,$05,$05,$05,$05
     318.  00:6C1C  05 05 0A 05 05 05 05 05 
     319.  00:6C24                          DB $0A,$05,$0B,$0A,$0A,$0A,$08,$08
     319.  00:6C24  0A 05 0B 0A 0A 0A 08 08 
     320.  00:6C2C                          ; attr 1
     321.  00:6C2C                          DB $00,$00,$44,$00,$40,$00,$00,$00
     321.  00:6C2C  00 00 44 00 40 00 00 00 
     322.  00:6C34                          DB $44,$4A,$45,$45,$45,$45,$45,$45    
     322.  00:6C34  44 4A 45 45 45 45 45 45 
     323.  00:6C3C                          ; attr 2
     324.  00:6C3C                          DB $00,$00,$41,$00,$00,$00,$00,$00
     324.  00:6C3C  00 00 41 00 00 00 00 00 
     325.  00:6C44                          DB $41,$41,$00,$00,$00,$00,$42,$00
     325.  00:6C44  41 41 00 00 00 00 42 00 
     326.  00:6C4C                          
     327.  00:6C4C                          ;SPRITE_COLOR_P1_UP2:
     328.  00:6C4C                          ;UP 1
     329.  00:6C4C                          ; attr 0
     330.  00:6C4C                          DB $05,$05,$0A,$05,$05,$05,$05,$05
     330.  00:6C4C  05 05 0A 05 05 05 05 05 
     331.  00:6C54                          DB $0A,$05,$0B,$0A,$0A,$0A,$08,$08
     331.  00:6C54  0A 05 0B 0A 0A 0A 08 08 
     332.  00:6C5C                          ; attr 1
     333.  00:6C5C                          DB $00,$00,$44,$00,$40,$00,$00,$00
     333.  00:6C5C  00 00 44 00 40 00 00 00 
     334.  00:6C64                          DB $44,$4A,$45,$45,$45,$45,$45,$45
     334.  00:6C64  44 4A 45 45 45 45 45 45 
     335.  00:6C6C                          ; attr 2
     336.  00:6C6C                          DB $00,$00,$41,$00,$00,$00,$00,$00
     336.  00:6C6C  00 00 41 00 00 00 00 00 
     337.  00:6C74                          DB $41,$41,$00,$00,$00,$00,$42,$00
     337.  00:6C74  41 41 00 00 00 00 42 00 
     338.  00:6C7C                      
     339.  00:6C7C                      
     340.  00:6C7C                      SPRITE_COLOR_P1_DOWN:
     341.  00:6C7C                          ;DOWN 1
     342.  00:6C7C                          ; attr 0
     343.  00:6C7C                          DB $05,$05,$0A,$0B,$0B,$0B,$0B,$0B
     343.  00:6C7C  05 05 0A 0B 0B 0B 0B 0B 
     344.  00:6C84                          DB $04,$04,$04,$0A,$0A,$0A,$08,$08    
     344.  00:6C84  04 04 04 0A 0A 0A 08 08 
     345.  00:6C8C                          ; attr 1
     346.  00:6C8C                          DB $00,$00,$44,$45,$45,$45,$45,$45
     346.  00:6C8C  00 00 44 45 45 45 45 45 
     347.  00:6C94                          DB $4A,$4A,$4A,$44,$44,$44,$45,$45    
     347.  00:6C94  4A 4A 4A 44 44 44 45 45 
     348.  00:6C9C                          ; attr 2
     349.  00:6C9C                          DB $00,$00,$41,$00,$40,$00,$00,$00
     349.  00:6C9C  00 00 41 00 40 00 00 00 
     350.  00:6CA4                          DB $41,$41,$41,$41,$41,$41,$42,$00
     350.  00:6CA4  41 41 41 41 41 41 42 00 
     351.  00:6CAC                          ;SPRITE_COLOR_P1_DOWN2:
     352.  00:6CAC                          ;DOWN 1
     353.  00:6CAC                          ; attr 0
     354.  00:6CAC                          DB $05,$05,$0A,$0B,$0B,$0B,$0B,$0B
     354.  00:6CAC  05 05 0A 0B 0B 0B 0B 0B 
     355.  00:6CB4                          DB $04,$04,$04,$0A,$0A,$0A,$08,$08    
     355.  00:6CB4  04 04 04 0A 0A 0A 08 08 
     356.  00:6CBC                          ; attr 1
     357.  00:6CBC                          DB $00,$00,$44,$45,$45,$45,$45,$45
     357.  00:6CBC  00 00 44 45 45 45 45 45 
     358.  00:6CC4                          DB $4A,$4A,$4A,$44,$44,$44,$45,$45    
     358.  00:6CC4  4A 4A 4A 44 44 44 45 45 
     359.  00:6CCC                          ; attr 2
     360.  00:6CCC                          DB $00,$00,$41,$00,$40,$00,$00,$00
     360.  00:6CCC  00 00 41 00 40 00 00 00 
     361.  00:6CD4                          DB $41,$41,$41,$41,$41,$41,$42,$00
     361.  00:6CD4  41 41 41 41 41 41 42 00 
     362.  00:6CDC                      
     363.  00:6CDC                      SPRITE_COLOR_P1_RIGHT:
     364.  00:6CDC                          ; attr 0
     365.  00:6CDC                          DB $05,$05,$0A,$0B,$0B,$0B,$0B,$0B
     365.  00:6CDC  05 05 0A 0B 0B 0B 0B 0B 
     366.  00:6CE4                          DB $0B,$0A,$0A,$0B,$0A,$0A,$08,$08    
     366.  00:6CE4  0B 0A 0A 0B 0A 0A 08 08 
     367.  00:6CEC                          ; attr 1
     368.  00:6CEC                          DB $00,$00,$44,$45,$45,$45,$45,$45
     368.  00:6CEC  00 00 44 45 45 45 45 45 
     369.  00:6CF4                          DB $45,$44,$44,$44,$44,$44,$45,$45    
     369.  00:6CF4  45 44 44 44 44 44 45 45 
     370.  00:6CFC                          ; attr 2
     371.  00:6CFC                          DB $00,$00,$41,$00,$40,$00,$00,$00
     371.  00:6CFC  00 00 41 00 40 00 00 00 
     372.  00:6D04                          DB $00,$41,$41,$41,$41,$41,$42,$00
     372.  00:6D04  00 41 41 41 41 41 42 00 
     373.  00:6D0C                             
     374.  00:6D0C                          ; attr 0
     375.  00:6D0C                          DB $05,$05,$0A,$0B,$0B,$0B,$0B,$0B
     375.  00:6D0C  05 05 0A 0B 0B 0B 0B 0B 
     376.  00:6D14                          DB $0B,$0A,$0A,$0A,$0B,$0A,$08,$08    
     376.  00:6D14  0B 0A 0A 0A 0B 0A 08 08 
     377.  00:6D1C                          ; attr 1
     378.  00:6D1C                          DB $00,$00,$44,$45,$45,$45,$45,$45
     378.  00:6D1C  00 00 44 45 45 45 45 45 
     379.  00:6D24                          DB $45,$44,$44,$44,$44,$44,$45,$45
     379.  00:6D24  45 44 44 44 44 44 45 45 
     380.  00:6D2C                          ; attr 2
     381.  00:6D2C                          DB $00,$00,$41,$00,$40,$00,$00,$00
     381.  00:6D2C  00 00 41 00 40 00 00 00 
     382.  00:6D34                          DB $00,$41,$41,$41,$41,$41,$42,$00
     382.  00:6D34  00 41 41 41 41 41 42 00 
     383.  00:6D3C                      
     384.  00:6D3C                      stg1_gate:
     385.  00:6D3C  00 00 00 00 00 00       DB #00,#00,#00,#00,#00,#00
     386.  00:6D42                      stg1_gate_blocked:
     387.  00:6D42  01 01 01 01 01 01       DB #01,#01,#01,#01,#01,#01
     388.  00:6D48                      mapa1:
     389.  00:6D48                            db #01,#01,#01,#01,#01,#01,#01,#01,#01,#01,#01,#01,#01,#01,#01,#01,#01,#01,#01,#01,#01,#01,#01,#01,#01,#01,#01,#01,#01,#01,#01,#01   
     389.  00:6D48  01 01 01 01 01 01 01 01 01 01 01 01 01 01 01 01 
     389.  00:6D58  01 01 01 01 01 01 01 01 01 01 01 01 01 01 01 01 
     390.  00:6D68                            db #01,#01,#01,#01,#01,#01,#01,#01,#01,#01,#01,#01,#01,#01,#01,#01,#01,#01,#01,#01,#01,#01,#01,#01,#01,#01,#01,#01,#01,#01,#01,#01   
     390.  00:6D68  01 01 01 01 01 01 01 01 01 01 01 01 01 01 01 01 
     390.  00:6D78  01 01 01 01 01 01 01 01 01 01 01 01 01 01 01 01 
     391.  00:6D88                            db #01,#01,#01,#01,#01,#01,#01,#01,#01,#01,#01,#01,#01,#00,#00,#00,#00,#00,#00,#01,#00,#00,#00,#00,#00,#00,#00,#00,#00,#00,#01,#01        
     391.  00:6D88  01 01 01 01 01 01 01 01 01 01 01 01 01 00 00 00 
     391.  00:6D98  00 00 00 01 00 00 00 00 00 00 00 00 00 00 01 01 
     392.  00:6DA8                            db #01,#00,#00,#00,#00,#00,#00,#00,#00,#00,#00,#00,#00,#00,#00,#00,#00,#00,#00,#01,#00,#00,#00,#00,#00,#00,#00,#00,#00,#00,#01,#01        
     392.  00:6DA8  01 00 00 00 00 00 00 00 00 00 00 00 00 00 00 00 
     392.  00:6DB8  00 00 00 01 00 00 00 00 00 00 00 00 00 00 01 01 
     393.  00:6DC8                            db #01,#00,#00,#00,#01,#00,#00,#00,#00,#00,#00,#00,#00,#00,#00,#00,#00,#00,#00,#01,#00,#00,#00,#00,#00,#00,#00,#00,#00,#00,#01,#01        
     393.  00:6DC8  01 00 00 00 01 00 00 00 00 00 00 00 00 00 00 00 
     393.  00:6DD8  00 00 00 01 00 00 00 00 00 00 00 00 00 00 01 01 
     394.  00:6DE8                            db #01,#00,#00,#00,#01,#00,#00,#00,#00,#00,#00,#00,#00,#00,#00,#00,#00,#00,#00,#01,#00,#00,#00,#00,#00,#00,#00,#00,#00,#00,#01,#01        
     394.  00:6DE8  01 00 00 00 01 00 00 00 00 00 00 00 00 00 00 00 
     394.  00:6DF8  00 00 00 01 00 00 00 00 00 00 00 00 00 00 01 01 
     395.  00:6E08                            db #01,#01,#01,#01,#01,#01,#01,#01,#01,#01,#01,#01,#01,#00,#00,#00,#00,#00,#00,#01,#00,#00,#00,#00,#00,#00,#00,#00,#00,#00,#01,#01        
     395.  00:6E08  01 01 01 01 01 01 01 01 01 01 01 01 01 00 00 00 
     395.  00:6E18  00 00 00 01 00 00 00 00 00 00 00 00 00 00 01 01 
     396.  00:6E28                            db #01,#00,#00,#00,#00,#00,#00,#00,#00,#00,#00,#00,#01,#00,#00,#00,#00,#00,#00,#01,#00,#00,#00,#00,#00,#00,#00,#00,#00,#00,#01,#01        
     396.  00:6E28  01 00 00 00 00 00 00 00 00 00 00 00 01 00 00 00 
     396.  00:6E38  00 00 00 01 00 00 00 00 00 00 00 00 00 00 01 01 
     397.  00:6E48                          
     398.  00:6E48                            db #01,#01,#00,#00,#00,#00,#00,#00,#00,#00,#00,#00,#01,#00,#00,#00,#00,#00,#00,#01,#00,#00,#00,#00,#00,#00,#00,#00,#00,#00,#01,#01        
     398.  00:6E48  01 01 00 00 00 00 00 00 00 00 00 00 01 00 00 00 
     398.  00:6E58  00 00 00 01 00 00 00 00 00 00 00 00 00 00 01 01 
     399.  00:6E68                            db #01,#01,#00,#00,#00,#00,#00,#00,#00,#00,#00,#00,#01,#00,#00,#00,#00,#00,#00,#01,#00,#00,#00,#00,#00,#00,#00,#00,#00,#00,#01,#01        
     399.  00:6E68  01 01 00 00 00 00 00 00 00 00 00 00 01 00 00 00 
     399.  00:6E78  00 00 00 01 00 00 00 00 00 00 00 00 00 00 01 01 
     400.  00:6E88                            db #01,#01,#00,#00,#00,#00,#00,#00,#00,#00,#00,#00,#01,#00,#00,#00,#00,#00,#00,#01,#01,#01,#01,#01,#01,#01,#01,#01,#01,#01,#01,#01        
     400.  00:6E88  01 01 00 00 00 00 00 00 00 00 00 00 01 00 00 00 
     400.  00:6E98  00 00 00 01 01 01 01 01 01 01 01 01 01 01 01 01 
     401.  00:6EA8                            db #01,#01,#00,#00,#00,#00,#00,#00,#00,#00,#00,#00,#01,#00,#00,#00,#00,#00,#00,#00,#00,#00,#00,#00,#00,#00,#00,#01,#00,#00,#01,#01        
     401.  00:6EA8  01 01 00 00 00 00 00 00 00 00 00 00 01 00 00 00 
     401.  00:6EB8  00 00 00 00 00 00 00 00 00 00 00 01 00 00 01 01 
     402.  00:6EC8                            db #01,#01,#00,#00,#00,#00,#00,#00,#00,#00,#00,#00,#01,#00,#00,#00,#00,#00,#00,#00,#00,#00,#00,#00,#00,#00,#00,#01,#00,#00,#01,#01        
     402.  00:6EC8  01 01 00 00 00 00 00 00 00 00 00 00 01 00 00 00 
     402.  00:6ED8  00 00 00 00 00 00 00 00 00 00 00 01 00 00 01 01 
     403.  00:6EE8                            db #01,#01,#00,#00,#00,#00,#00,#00,#00,#00,#00,#00,#01,#00,#00,#00,#00,#00,#00,#00,#00,#00,#00,#00,#00,#00,#00,#01,#00,#00,#01,#01        
     403.  00:6EE8  01 01 00 00 00 00 00 00 00 00 00 00 01 00 00 00 
     403.  00:6EF8  00 00 00 00 00 00 00 00 00 00 00 01 00 00 01 01 
     404.  00:6F08                            db #01,#01,#00,#00,#00,#00,#00,#01,#01,#01,#01,#01,#01,#00,#00,#00,#00,#00,#00,#01,#01,#01,#01,#01,#01,#01,#01,#01,#01,#01,#01,#01        
     404.  00:6F08  01 01 00 00 00 00 00 01 01 01 01 01 01 00 00 00 
     404.  00:6F18  00 00 00 01 01 01 01 01 01 01 01 01 01 01 01 01 
     405.  00:6F28                            db #01,#01,#00,#00,#00,#00,#00,#01,#01,#00,#00,#00,#00,#00,#00,#00,#00,#00,#00,#01,#00,#00,#00,#00,#00,#00,#00,#00,#00,#00,#01,#01        
     405.  00:6F28  01 01 00 00 00 00 00 01 01 00 00 00 00 00 00 00 
     405.  00:6F38  00 00 00 01 00 00 00 00 00 00 00 00 00 00 01 01 
     406.  00:6F48                      
     407.  00:6F48                            db #01,#01,#00,#00,#00,#00,#01,#01,#01,#00,#00,#00,#00,#00,#00,#00,#00,#00,#00,#01,#00,#00,#00,#00,#00,#00,#00,#00,#00,#00,#01,#01        
     407.  00:6F48  01 01 00 00 00 00 01 01 01 00 00 00 00 00 00 00 
     407.  00:6F58  00 00 00 01 00 00 00 00 00 00 00 00 00 00 01 01 
     408.  00:6F68                            db #01,#01,#00,#00,#00,#00,#01,#01,#01,#00,#00,#00,#00,#00,#00,#00,#00,#00,#00,#01,#00,#00,#00,#00,#00,#00,#00,#00,#00,#00,#01,#01        
     408.  00:6F68  01 01 00 00 00 00 01 01 01 00 00 00 00 00 00 00 
     408.  00:6F78  00 00 00 01 00 00 00 00 00 00 00 00 00 00 01 01 
     409.  00:6F88                            db #01,#01,#00,#00,#01,#01,#01,#01,#01,#01,#01,#01,#01,#00,#00,#00,#00,#00,#00,#01,#00,#00,#00,#00,#00,#00,#00,#00,#00,#00,#01,#01        
     409.  00:6F88  01 01 00 00 01 01 01 01 01 01 01 01 01 00 00 00 
     409.  00:6F98  00 00 00 01 00 00 00 00 00 00 00 00 00 00 01 01 
     410.  00:6FA8                            db #01,#01,#00,#00,#00,#00,#00,#00,#00,#00,#00,#00,#01,#00,#00,#00,#00,#00,#00,#01,#00,#00,#00,#00,#00,#00,#00,#00,#00,#00,#01,#01        
     410.  00:6FA8  01 01 00 00 00 00 00 00 00 00 00 00 01 00 00 00 
     410.  00:6FB8  00 00 00 01 00 00 00 00 00 00 00 00 00 00 01 01 
     411.  00:6FC8                            db #01,#01,#01,#01,#01,#01,#01,#01,#01,#01,#01,#01,#01,#00,#00,#00,#00,#00,#00,#01,#01,#01,#01,#01,#01,#01,#01,#01,#01,#01,#01,#01   
     411.  00:6FC8  01 01 01 01 01 01 01 01 01 01 01 01 01 00 00 00 
     411.  00:6FD8  00 00 00 01 01 01 01 01 01 01 01 01 01 01 01 01 
     412.  00:6FE8                            db #01,#01,#01,#01,#01,#01,#01,#01,#01,#01,#01,#01,#01,#00,#00,#00,#00,#00,#00,#01,#01,#01,#01,#01,#01,#01,#01,#01,#01,#01,#01,#01   
     412.  00:6FE8  01 01 01 01 01 01 01 01 01 01 01 01 01 00 00 00 
     412.  00:6FF8  00 00 00 01 01 01 01 01 01 01 01 01 01 01 01 01 
     413.  00:7008                            db #01,#01,#01,#01,#01,#01,#01,#01,#01,#01,#01,#01,#01,#01,#01,#01,#01,#01,#01,#01,#01,#01,#01,#01,#01,#01,#01,#01,#01,#01,#01,#01        
     413.  00:7008  01 01 01 01 01 01 01 01 01 01 01 01 01 01 01 01 
     413.  00:7018  01 01 01 01 01 01 01 01 01 01 01 01 01 01 01 01 
     414.  00:7028                      
     415.  00:7028                      mapa2:
     416.  00:7028                            db #01,#01,#01,#01,#01,#01,#01,#01,#01,#01,#01,#01,#01,#01,#01,#01,#01,#01,#01,#01,#01,#01,#01,#01,#01,#01,#01,#01,#01,#01,#01,#01   
     416.  00:7028  01 01 01 01 01 01 01 01 01 01 01 01 01 01 01 01 
     416.  00:7038  01 01 01 01 01 01 01 01 01 01 01 01 01 01 01 01 
     417.  00:7048                            db #01,#01,#01,#01,#01,#01,#01,#01,#01,#01,#01,#01,#01,#01,#01,#01,#01,#01,#01,#01,#01,#01,#01,#01,#01,#01,#01,#01,#01,#01,#01,#01   
     417.  00:7048  01 01 01 01 01 01 01 01 01 01 01 01 01 01 01 01 
     417.  00:7058  01 01 01 01 01 01 01 01 01 01 01 01 01 01 01 01 
     418.  00:7068                            db #01,#01,#01,#01,#01,#01,#01,#01,#01,#01,#01,#01,#01,#01,#01,#01,#01,#01,#01,#01,#01,#01,#01,#01,#01,#01,#01,#01,#01,#01,#01,#01   
     418.  00:7068  01 01 01 01 01 01 01 01 01 01 01 01 01 01 01 01 
     418.  00:7078  01 01 01 01 01 01 01 01 01 01 01 01 01 01 01 01 
     419.  00:7088                            db #01,#01,#01,#01,#01,#01,#01,#01,#01,#01,#01,#01,#01,#01,#01,#01,#01,#01,#01,#01,#01,#01,#01,#01,#01,#01,#01,#01,#01,#01,#01,#01   
     419.  00:7088  01 01 01 01 01 01 01 01 01 01 01 01 01 01 01 01 
     419.  00:7098  01 01 01 01 01 01 01 01 01 01 01 01 01 01 01 01 
     420.  00:70A8                            db #01,#01,#01,#01,#01,#01,#01,#01,#01,#01,#01,#01,#01,#01,#01,#01,#01,#01,#01,#01,#01,#01,#01,#01,#01,#01,#01,#01,#01,#01,#01,#01   
     420.  00:70A8  01 01 01 01 01 01 01 01 01 01 01 01 01 01 01 01 
     420.  00:70B8  01 01 01 01 01 01 01 01 01 01 01 01 01 01 01 01 
     421.  00:70C8                            db #01,#01,#01,#01,#01,#01,#01,#01,#01,#01,#01,#01,#01,#01,#01,#01,#01,#01,#01,#01,#01,#01,#01,#01,#01,#01,#01,#01,#01,#01,#01,#01   
     421.  00:70C8  01 01 01 01 01 01 01 01 01 01 01 01 01 01 01 01 
     421.  00:70D8  01 01 01 01 01 01 01 01 01 01 01 01 01 01 01 01 
     422.  00:70E8                            db #01,#01,#01,#01,#01,#01,#01,#01,#01,#01,#01,#01,#01,#01,#01,#01,#01,#01,#01,#01,#01,#01,#01,#01,#01,#01,#01,#01,#01,#01,#01,#01   
     422.  00:70E8  01 01 01 01 01 01 01 01 01 01 01 01 01 01 01 01 
     422.  00:70F8  01 01 01 01 01 01 01 01 01 01 01 01 01 01 01 01 
     423.  00:7108                            db #01,#01,#01,#01,#01,#01,#01,#01,#01,#01,#01,#01,#01,#01,#01,#01,#01,#01,#01,#01,#01,#01,#01,#01,#01,#01,#01,#01,#01,#01,#01,#01   
     423.  00:7108  01 01 01 01 01 01 01 01 01 01 01 01 01 01 01 01 
     423.  00:7118  01 01 01 01 01 01 01 01 01 01 01 01 01 01 01 01 
     424.  00:7128                            
     425.  00:7128                            db #01,#01,#01,#01,#01,#01,#01,#01,#01,#01,#01,#01,#01,#01,#01,#01,#01,#01,#01,#01,#01,#01,#01,#01,#01,#01,#01,#01,#01,#01,#01,#01   
     425.  00:7128  01 01 01 01 01 01 01 01 01 01 01 01 01 01 01 01 
     425.  00:7138  01 01 01 01 01 01 01 01 01 01 01 01 01 01 01 01 
     426.  00:7148                            db #01,#01,#01,#01,#01,#01,#01,#01,#01,#01,#01,#01,#01,#01,#01,#01,#01,#01,#01,#01,#01,#01,#01,#01,#01,#01,#01,#01,#01,#01,#01,#01   
     426.  00:7148  01 01 01 01 01 01 01 01 01 01 01 01 01 01 01 01 
     426.  00:7158  01 01 01 01 01 01 01 01 01 01 01 01 01 01 01 01 
     427.  00:7168                            db #01,#01,#01,#01,#01,#01,#01,#01,#01,#01,#01,#01,#01,#01,#01,#01,#01,#01,#01,#01,#01,#01,#01,#01,#01,#01,#01,#01,#01,#01,#01,#01   
     427.  00:7168  01 01 01 01 01 01 01 01 01 01 01 01 01 01 01 01 
     427.  00:7178  01 01 01 01 01 01 01 01 01 01 01 01 01 01 01 01 
     428.  00:7188                            db #01,#01,#01,#01,#01,#01,#01,#01,#01,#01,#01,#01,#01,#01,#01,#01,#01,#01,#01,#01,#01,#01,#01,#01,#01,#01,#01,#01,#01,#01,#01,#01   
     428.  00:7188  01 01 01 01 01 01 01 01 01 01 01 01 01 01 01 01 
     428.  00:7198  01 01 01 01 01 01 01 01 01 01 01 01 01 01 01 01 
     429.  00:71A8                            db #01,#01,#01,#01,#01,#01,#01,#01,#01,#01,#01,#01,#01,#01,#00,#00,#00,#00,#01,#01,#01,#01,#01,#01,#01,#01,#01,#01,#01,#01,#01,#01   
     429.  00:71A8  01 01 01 01 01 01 01 01 01 01 01 01 01 01 00 00 
     429.  00:71B8  00 00 01 01 01 01 01 01 01 01 01 01 01 01 01 01 
     430.  00:71C8                            db #01,#01,#01,#01,#01,#01,#01,#01,#01,#01,#01,#01,#01,#01,#00,#00,#00,#00,#01,#01,#01,#01,#01,#01,#01,#01,#01,#01,#01,#01,#01,#01   
     430.  00:71C8  01 01 01 01 01 01 01 01 01 01 01 01 01 01 00 00 
     430.  00:71D8  00 00 01 01 01 01 01 01 01 01 01 01 01 01 01 01 
     431.  00:71E8                            db #01,#01,#01,#01,#01,#01,#01,#01,#01,#01,#01,#01,#01,#01,#00,#00,#00,#00,#01,#01,#01,#01,#01,#01,#01,#01,#01,#01,#01,#01,#01,#01   
     431.  00:71E8  01 01 01 01 01 01 01 01 01 01 01 01 01 01 00 00 
     431.  00:71F8  00 00 01 01 01 01 01 01 01 01 01 01 01 01 01 01 
     432.  00:7208                            db #01,#01,#01,#01,#01,#01,#01,#01,#01,#01,#01,#01,#01,#01,#00,#00,#00,#00,#01,#01,#01,#01,#01,#01,#01,#01,#01,#01,#01,#01,#01,#01   
     432.  00:7208  01 01 01 01 01 01 01 01 01 01 01 01 01 01 00 00 
     432.  00:7218  00 00 01 01 01 01 01 01 01 01 01 01 01 01 01 01 
     433.  00:7228                            
     434.  00:7228                            db #01,#01,#01,#01,#01,#01,#01,#01,#01,#01,#01,#01,#01,#01,#00,#00,#00,#00,#01,#01,#01,#01,#01,#01,#01,#01,#01,#01,#01,#01,#01,#01   
     434.  00:7228  01 01 01 01 01 01 01 01 01 01 01 01 01 01 00 00 
     434.  00:7238  00 00 01 01 01 01 01 01 01 01 01 01 01 01 01 01 
     435.  00:7248                            db #01,#01,#01,#01,#01,#01,#01,#01,#01,#01,#01,#01,#01,#01,#00,#00,#00,#00,#01,#01,#01,#01,#01,#01,#01,#01,#01,#01,#01,#01,#01,#01   
     435.  00:7248  01 01 01 01 01 01 01 01 01 01 01 01 01 01 00 00 
     435.  00:7258  00 00 01 01 01 01 01 01 01 01 01 01 01 01 01 01 
     436.  00:7268                            db #01,#01,#01,#01,#01,#01,#01,#01,#01,#01,#01,#01,#01,#01,#00,#00,#00,#00,#01,#01,#01,#01,#01,#01,#01,#01,#01,#01,#01,#01,#01,#01   
     436.  00:7268  01 01 01 01 01 01 01 01 01 01 01 01 01 01 00 00 
     436.  00:7278  00 00 01 01 01 01 01 01 01 01 01 01 01 01 01 01 
     437.  00:7288                            db #01,#01,#01,#01,#01,#01,#01,#01,#01,#01,#01,#01,#01,#01,#00,#00,#00,#00,#01,#01,#01,#01,#01,#01,#01,#01,#01,#01,#01,#01,#01,#01   
     437.  00:7288  01 01 01 01 01 01 01 01 01 01 01 01 01 01 00 00 
     437.  00:7298  00 00 01 01 01 01 01 01 01 01 01 01 01 01 01 01 
     438.  00:72A8                            db #01,#01,#01,#01,#01,#01,#01,#01,#01,#01,#01,#01,#01,#01,#00,#00,#00,#00,#01,#01,#01,#01,#01,#01,#01,#01,#01,#01,#01,#01,#01,#01   
     438.  00:72A8  01 01 01 01 01 01 01 01 01 01 01 01 01 01 00 00 
     438.  00:72B8  00 00 01 01 01 01 01 01 01 01 01 01 01 01 01 01 
     439.  00:72C8                            db #01,#01,#01,#01,#01,#01,#01,#01,#01,#01,#01,#01,#01,#01,#00,#00,#00,#00,#01,#01,#01,#01,#01,#01,#01,#01,#01,#01,#01,#01,#01,#01   
     439.  00:72C8  01 01 01 01 01 01 01 01 01 01 01 01 01 01 00 00 
     439.  00:72D8  00 00 01 01 01 01 01 01 01 01 01 01 01 01 01 01 
     440.  00:72E8                            db #01,#01,#01,#01,#01,#01,#01,#01,#01,#01,#01,#01,#01,#01,#00,#00,#00,#00,#01,#01,#01,#01,#01,#01,#01,#01,#01,#01,#01,#01,#01,#01   
     440.  00:72E8  01 01 01 01 01 01 01 01 01 01 01 01 01 01 00 00 
     440.  00:72F8  00 00 01 01 01 01 01 01 01 01 01 01 01 01 01 01 
     441.  00:7308                            db #01,#01,#01,#01,#01,#01,#01,#01,#01,#01,#01,#01,#01,#01,#00,#00,#00,#00,#01,#01,#01,#01,#01,#01,#01,#01,#01,#01,#01,#01,#01,#01   
     441.  00:7308  01 01 01 01 01 01 01 01 01 01 01 01 01 01 00 00 
     441.  00:7318  00 00 01 01 01 01 01 01 01 01 01 01 01 01 01 01 
     442.  00:7328                            db #01,#01,#01,#01,#01,#01,#01,#01,#01,#01,#01,#01,#01,#01,#00,#00,#00,#00,#01,#01,#01,#01,#01,#01,#01,#01,#01,#01,#01,#01,#01,#01   
     442.  00:7328  01 01 01 01 01 01 01 01 01 01 01 01 01 01 00 00 
     442.  00:7338  00 00 01 01 01 01 01 01 01 01 01 01 01 01 01 01 
     443.  00:7348                            
     444.  00:7348                      mapa0:      
     445.  00:7348                            db #01,#01,#01,#01,#01,#01,#01,#01,#01,#01,#01,#01,#01,#01,#01,#01,#01,#01,#01,#01,#01,#01,#01,#01,#01,#01,#01,#01,#01,#01,#01,#01   
     445.  00:7348  01 01 01 01 01 01 01 01 01 01 01 01 01 01 01 01 
     445.  00:7358  01 01 01 01 01 01 01 01 01 01 01 01 01 01 01 01 
     446.  00:7368                            db #01,#00,#00,#00,#00,#00,#00,#00,#00,#00,#00,#00,#00,#00,#00,#00,#00,#00,#00,#00,#00,#00,#00,#00,#00,#00,#00,#00,#00,#00,#00,#01        
     446.  00:7368  01 00 00 00 00 00 00 00 00 00 00 00 00 00 00 00 
     446.  00:7378  00 00 00 00 00 00 00 00 00 00 00 00 00 00 00 01 
     447.  00:7388                            db #01,#00,#00,#00,#00,#00,#00,#00,#00,#00,#00,#00,#00,#00,#00,#00,#00,#00,#00,#00,#00,#00,#00,#00,#00,#00,#00,#00,#00,#00,#00,#01        
     447.  00:7388  01 00 00 00 00 00 00 00 00 00 00 00 00 00 00 00 
     447.  00:7398  00 00 00 00 00 00 00 00 00 00 00 00 00 00 00 01 
     448.  00:73A8                            db #01,#00,#00,#00,#00,#00,#00,#00,#00,#00,#00,#00,#00,#00,#00,#00,#00,#00,#00,#00,#00,#00,#00,#00,#00,#00,#00,#00,#00,#00,#00,#01        
     448.  00:73A8  01 00 00 00 00 00 00 00 00 00 00 00 00 00 00 00 
     448.  00:73B8  00 00 00 00 00 00 00 00 00 00 00 00 00 00 00 01 
     449.  00:73C8                            db #01,#00,#00,#00,#00,#00,#00,#00,#00,#00,#00,#00,#00,#00,#00,#00,#00,#00,#00,#00,#00,#00,#00,#00,#00,#00,#00,#00,#00,#00,#00,#01        
     449.  00:73C8  01 00 00 00 00 00 00 00 00 00 00 00 00 00 00 00 
     449.  00:73D8  00 00 00 00 00 00 00 00 00 00 00 00 00 00 00 01 
     450.  00:73E8                            db #01,#00,#00,#00,#00,#00,#00,#00,#00,#00,#00,#00,#00,#00,#00,#00,#00,#00,#00,#00,#00,#00,#00,#00,#00,#00,#00,#00,#00,#00,#00,#01        
     450.  00:73E8  01 00 00 00 00 00 00 00 00 00 00 00 00 00 00 00 
     450.  00:73F8  00 00 00 00 00 00 00 00 00 00 00 00 00 00 00 01 
     451.  00:7408                            db #01,#00,#00,#00,#00,#00,#00,#00,#00,#00,#00,#00,#00,#00,#00,#00,#00,#00,#00,#00,#00,#00,#00,#00,#00,#00,#00,#00,#00,#00,#00,#01       
     451.  00:7408  01 00 00 00 00 00 00 00 00 00 00 00 00 00 00 00 
     451.  00:7418  00 00 00 00 00 00 00 00 00 00 00 00 00 00 00 01 
     452.  00:7428                            db #01,#00,#00,#00,#00,#00,#00,#00,#00,#00,#00,#00,#00,#00,#00,#00,#00,#00,#00,#00,#00,#00,#00,#00,#00,#00,#00,#00,#00,#00,#00,#01        
     452.  00:7428  01 00 00 00 00 00 00 00 00 00 00 00 00 00 00 00 
     452.  00:7438  00 00 00 00 00 00 00 00 00 00 00 00 00 00 00 01 
     453.  00:7448                            
     454.  00:7448                            db #01,#00,#00,#00,#00,#00,#00,#00,#00,#00,#00,#00,#00,#00,#00,#00,#00,#00,#00,#00,#00,#00,#00,#00,#00,#00,#00,#00,#00,#00,#00,#01        
     454.  00:7448  01 00 00 00 00 00 00 00 00 00 00 00 00 00 00 00 
     454.  00:7458  00 00 00 00 00 00 00 00 00 00 00 00 00 00 00 01 
     455.  00:7468                            db #01,#00,#00,#00,#00,#00,#00,#00,#00,#00,#00,#00,#00,#00,#00,#00,#00,#00,#00,#00,#00,#00,#00,#00,#00,#00,#00,#00,#00,#00,#00,#01        
     455.  00:7468  01 00 00 00 00 00 00 00 00 00 00 00 00 00 00 00 
     455.  00:7478  00 00 00 00 00 00 00 00 00 00 00 00 00 00 00 01 
     456.  00:7488                            db #01,#00,#00,#00,#00,#00,#00,#00,#00,#00,#00,#00,#00,#00,#00,#00,#00,#00,#00,#00,#00,#00,#00,#00,#00,#00,#00,#00,#00,#00,#00,#01        
     456.  00:7488  01 00 00 00 00 00 00 00 00 00 00 00 00 00 00 00 
     456.  00:7498  00 00 00 00 00 00 00 00 00 00 00 00 00 00 00 01 
     457.  00:74A8                            db #01,#00,#00,#00,#00,#00,#00,#00,#00,#00,#00,#00,#00,#00,#00,#00,#00,#00,#00,#00,#00,#00,#00,#00,#00,#00,#00,#00,#00,#00,#00,#01        
     457.  00:74A8  01 00 00 00 00 00 00 00 00 00 00 00 00 00 00 00 
     457.  00:74B8  00 00 00 00 00 00 00 00 00 00 00 00 00 00 00 01 
     458.  00:74C8                            db #01,#00,#00,#00,#00,#00,#00,#00,#00,#00,#00,#00,#00,#00,#00,#00,#00,#00,#00,#00,#00,#00,#00,#00,#00,#00,#00,#00,#00,#00,#00,#01        
     458.  00:74C8  01 00 00 00 00 00 00 00 00 00 00 00 00 00 00 00 
     458.  00:74D8  00 00 00 00 00 00 00 00 00 00 00 00 00 00 00 01 
     459.  00:74E8                            db #01,#00,#00,#00,#00,#00,#00,#00,#00,#00,#00,#00,#00,#00,#00,#00,#00,#00,#00,#00,#00,#00,#00,#00,#00,#00,#00,#00,#00,#00,#00,#01        
     459.  00:74E8  01 00 00 00 00 00 00 00 00 00 00 00 00 00 00 00 
     459.  00:74F8  00 00 00 00 00 00 00 00 00 00 00 00 00 00 00 01 
     460.  00:7508                            db #01,#00,#00,#00,#00,#00,#00,#00,#00,#00,#00,#00,#00,#00,#00,#00,#00,#00,#00,#00,#00,#00,#00,#00,#00,#00,#00,#00,#00,#00,#00,#01        
     460.  00:7508  01 00 00 00 00 00 00 00 00 00 00 00 00 00 00 00 
     460.  00:7518  00 00 00 00 00 00 00 00 00 00 00 00 00 00 00 01 
     461.  00:7528                            db #01,#00,#00,#00,#00,#00,#00,#00,#00,#00,#00,#00,#00,#00,#00,#00,#00,#00,#00,#00,#00,#00,#00,#00,#00,#00,#00,#00,#00,#00,#00,#01        
     461.  00:7528  01 00 00 00 00 00 00 00 00 00 00 00 00 00 00 00 
     461.  00:7538  00 00 00 00 00 00 00 00 00 00 00 00 00 00 00 01 
     462.  00:7548                      
     463.  00:7548                            db #01,#00,#00,#00,#00,#00,#00,#00,#00,#00,#00,#00,#00,#00,#00,#00,#00,#00,#00,#00,#00,#00,#00,#00,#00,#00,#00,#00,#00,#00,#00,#01        
     463.  00:7548  01 00 00 00 00 00 00 00 00 00 00 00 00 00 00 00 
     463.  00:7558  00 00 00 00 00 00 00 00 00 00 00 00 00 00 00 01 
     464.  00:7568                            db #01,#00,#00,#00,#00,#00,#00,#00,#00,#00,#00,#00,#00,#00,#00,#00,#00,#00,#00,#00,#00,#00,#00,#00,#00,#00,#00,#00,#00,#00,#00,#01        
     464.  00:7568  01 00 00 00 00 00 00 00 00 00 00 00 00 00 00 00 
     464.  00:7578  00 00 00 00 00 00 00 00 00 00 00 00 00 00 00 01 
     465.  00:7588                            db #01,#00,#00,#00,#01,#01,#00,#00,#00,#00,#00,#00,#00,#00,#00,#00,#00,#00,#00,#00,#00,#00,#00,#00,#00,#00,#00,#00,#00,#00,#00,#01        
     465.  00:7588  01 00 00 00 01 01 00 00 00 00 00 00 00 00 00 00 
     465.  00:7598  00 00 00 00 00 00 00 00 00 00 00 00 00 00 00 01 
     466.  00:75A8                            db #01,#00,#00,#00,#01,#01,#00,#00,#00,#00,#00,#00,#00,#00,#00,#00,#00,#00,#00,#00,#00,#00,#00,#00,#00,#00,#00,#00,#00,#00,#00,#01        
     466.  00:75A8  01 00 00 00 01 01 00 00 00 00 00 00 00 00 00 00 
     466.  00:75B8  00 00 00 00 00 00 00 00 00 00 00 00 00 00 00 01 
     467.  00:75C8                            db #01,#00,#00,#00,#00,#00,#00,#00,#00,#00,#00,#00,#00,#00,#00,#00,#00,#00,#00,#00,#00,#00,#00,#00,#00,#00,#00,#00,#00,#00,#00,#01        
     467.  00:75C8  01 00 00 00 00 00 00 00 00 00 00 00 00 00 00 00 
     467.  00:75D8  00 00 00 00 00 00 00 00 00 00 00 00 00 00 00 01 
     468.  00:75E8                            db #01,#00,#00,#00,#00,#00,#00,#00,#00,#00,#00,#00,#00,#00,#00,#00,#00,#00,#00,#00,#00,#00,#00,#00,#00,#00,#00,#00,#00,#00,#00,#01        
     468.  00:75E8  01 00 00 00 00 00 00 00 00 00 00 00 00 00 00 00 
     468.  00:75F8  00 00 00 00 00 00 00 00 00 00 00 00 00 00 00 01 
     469.  00:7608                            db #01,#00,#00,#00,#00,#00,#00,#00,#00,#00,#00,#00,#00,#00,#00,#00,#00,#00,#00,#00,#00,#00,#00,#00,#00,#00,#00,#00,#00,#00,#00,#01        
     469.  00:7608  01 00 00 00 00 00 00 00 00 00 00 00 00 00 00 00 
     469.  00:7618  00 00 00 00 00 00 00 00 00 00 00 00 00 00 00 01 
     470.  00:7628                            db #01,#00,#00,#00,#00,#00,#00,#00,#00,#00,#00,#00,#00,#00,#00,#00,#00,#00,#00,#00,#00,#00,#00,#00,#00,#00,#00,#00,#00,#00,#00,#01   
     470.  00:7628  01 00 00 00 00 00 00 00 00 00 00 00 00 00 00 00 
     470.  00:7638  00 00 00 00 00 00 00 00 00 00 00 00 00 00 00 01 
     471.  00:7648                            
     472.  00:7648                            db #01,#01,#01,#01,#01,#01,#01,#01,#01,#01,#01,#01,#01,#01,#01,#01,#01,#01,#01,#01,#01,#01,#01,#01,#01,#01,#01,#01,#01,#01,#01,#01   
     472.  00:7648  01 01 01 01 01 01 01 01 01 01 01 01 01 01 01 01 
     472.  00:7658  01 01 01 01 01 01 01 01 01 01 01 01 01 01 01 01 
     473.  00:7668                            db #01,#01,#01,#01,#01,#01,#01,#01,#01,#01,#01,#01,#01,#01,#01,#01,#01,#01,#01,#01,#01,#01,#01,#01,#01,#01,#01,#01,#01,#01,#01,#01   
     473.  00:7668  01 01 01 01 01 01 01 01 01 01 01 01 01 01 01 01 
     473.  00:7678  01 01 01 01 01 01 01 01 01 01 01 01 01 01 01 01 
     474.  00:7688                            db #01,#01,#01,#01,#01,#01,#01,#01,#01,#01,#01,#01,#01,#01,#01,#01,#01,#01,#01,#01,#01,#01,#01,#01,#01,#01,#01,#01,#01,#01,#01,#01   
     474.  00:7688  01 01 01 01 01 01 01 01 01 01 01 01 01 01 01 01 
     474.  00:7698  01 01 01 01 01 01 01 01 01 01 01 01 01 01 01 01 
     475.  00:76A8                          
     476.  00:76A8                      
     477.  00:76A8                      SPRITE_COLOR_P1_LEFT:
     478.  00:76A8                          ; attr 0
     479.  00:76A8                          DB $05,$05,$0A,$0B,$0B,$0B,$0B,$0B
     479.  00:76A8  05 05 0A 0B 0B 0B 0B 0B 
     480.  00:76B0                          DB $0B,$0A,$0A,$0B,$0A,$0A,$08,$08
     480.  00:76B0  0B 0A 0A 0B 0A 0A 08 08 
     481.  00:76B8                          ; attr 1
     482.  00:76B8                          DB $00,$00,$44,$45,$45,$45,$45,$45
     482.  00:76B8  00 00 44 45 45 45 45 45 
     483.  00:76C0                          DB $45,$44,$44,$44,$44,$44,$45,$45
     483.  00:76C0  45 44 44 44 44 44 45 45 
     484.  00:76C8                          ; attr 2
     485.  00:76C8                          DB $00,$00,$41,$00,$40,$00,$00,$00
     485.  00:76C8  00 00 41 00 40 00 00 00 
     486.  00:76D0                          DB $00,$41,$41,$41,$41,$41,$42,$00
     486.  00:76D0  00 41 41 41 41 41 42 00 
     487.  00:76D8                          ;SPRITE_COLOR_P1_LEFT2:    
     488.  00:76D8                          ; attr 0
     489.  00:76D8                          DB $05,$05,$0A,$0B,$0B,$0B,$0B,$0B
     489.  00:76D8  05 05 0A 0B 0B 0B 0B 0B 
     490.  00:76E0                          DB $0B,$0A,$0A,$0A,$0B,$0A,$08,$08
     490.  00:76E0  0B 0A 0A 0A 0B 0A 08 08 
     491.  00:76E8                          ; attr 1
     492.  00:76E8                          DB $00,$00,$44,$45,$45,$45,$45,$45
     492.  00:76E8  00 00 44 45 45 45 45 45 
     493.  00:76F0                          DB $45,$44,$44,$44,$44,$44,$45,$45
     493.  00:76F0  45 44 44 44 44 44 45 45 
     494.  00:76F8                          ; attr 2
     495.  00:76F8                          DB $00,$00,$41,$00,$40,$00,$00,$00
     495.  00:76F8  00 00 41 00 40 00 00 00 
     496.  00:7700                          DB $00,$41,$41,$41,$41,$41,$42,$00
     496.  00:7700  00 41 41 41 41 41 42 00 
     497.  00:7708                      
     498.  00:7708                      BLANK_DATA:
     499.  00:7708                          DB $00,$00,$00,$00,$00,$00,$00,$00,$00,$00,$00,$00,$00,$00,$00,$00,$00,$00,$00,$00,$00,$00,$00,$00,$00,$00,$00,$00,$00,$00,$00,$00
     499.  00:7708  00 00 00 00 00 00 00 00 00 00 00 00 00 00 00 00 
     499.  00:7718  00 00 00 00 00 00 00 00 00 00 00 00 00 00 00 00 
     500.  00:7728                          DB $00,$00,$00,$00,$00,$00,$00,$00,$00,$00,$00,$00,$00,$00,$00,$00,$00,$00,$00,$00,$00,$00,$00,$00,$00,$00,$00,$00,$00,$00,$00,$00
     500.  00:7728  00 00 00 00 00 00 00 00 00 00 00 00 00 00 00 00 
     500.  00:7738  00 00 00 00 00 00 00 00 00 00 00 00 00 00 00 00 
     501.  00:7748                          DB $00,$00,$00,$00,$00,$00,$00,$00,$00,$00,$00,$00,$00,$00,$00,$00,$00,$00,$00,$00,$00,$00,$00,$00,$00,$00,$00,$00,$00,$00,$00,$00
     501.  00:7748  00 00 00 00 00 00 00 00 00 00 00 00 00 00 00 00 
     501.  00:7758  00 00 00 00 00 00 00 00 00 00 00 00 00 00 00 00 
     502.  00:7768                          DB $00,$00,$00,$00,$00,$00,$00,$00,$00,$00,$00,$00,$00,$00,$00,$00,$00,$00,$00,$00,$00,$00,$00,$00,$00,$00,$00,$00,$00,$00,$00,$00
     502.  00:7768  00 00 00 00 00 00 00 00 00 00 00 00 00 00 00 00 
     502.  00:7778  00 00 00 00 00 00 00 00 00 00 00 00 00 00 00 00 
     503.  00:7788                      
     504.  00:7788                          
     505.  00:7788                      PaletteData:
     506.  00:7788                      			;  data 1 (red 0-7; blue 0-7); data 2 (0000; green 0-7)
     507.  00:7788  00 00                   db 0x00, 0x00 ; Color index 0
     508.  00:778A  30 00                   db 0x30, 0x00 ; Color index 1
     509.  00:778C  70 06                   db 0x70, 0x06 ; Color index 2
     510.  00:778E  50 00                   db 0x50, 0x00 ; Color index 3
     511.  00:7790  11 01                   db 0x11, 0x01 ; Color index 4
     512.  00:7792  22 02                   db 0x22, 0x02 ; Color index 5
     513.  00:7794  06 02                   db 0x06, 0x02 ; Color index 6
     514.  00:7796  77 07                   db 0x77, 0x07 ; Color index 7
     515.  00:7798  33 03                   db 0x33, 0x03 ; Color index 8
     516.  00:779A  66 06                   db 0x66, 0x06 ; Color index 9
     517.  00:779C  70 00                   db 0x70, 0x00 ; Color index 10
     518.  00:779E  64 05                   db 0x64, 0x05 ; Color index 11
     519.  00:77A0  50 03                   db 0x50, 0x03 ; Color index 12
     520.  00:77A2  02 04                   db 0x02, 0x04 ; Color index 13
     521.  00:77A4  01 02                   db 0x01, 0x02 ; Color index 14
     522.  00:77A6  00 00                   db 0x00, 0x00 ; Color index 15
     695   00:77A8                      TILES1:
     696   00:77A8  (07F9)               INCBIN "gfx\tiles1.sc5",#7
     697   00:7FA1                      
     698   00:7FA1  (01)                 PAGE 1
     699   01:8000                      ; CODE O NO
     700   01:8000                      
     701   01:8000  (02)                 PAGE 2
     702   02:8000                      
     703   02:8000  (03)                 PAGE 3
     704   03:8000                      
     705   03:8000  (04)                 PAGE 4
     706   04:8000  (05)                 PAGE 5
     707   05:8000  (06)                 PAGE 6
     708   06:8000                      FONT:
     709   06:8000  (07F7)               INCBIN "gfx\FONT.SC5",#7
     710   06:87F7  (07)                 PAGE 7
     711   07:8000                      CEMENTER1
     712   07:8000                       ;#Para el fondo borrar de BDA0 en adelante para quitar la parte de la energia
     713   07:8000  (4000)               INCBIN "gfx\CEMENTER1.SC5",#7,#4000			; Cada página tiene 16K = 4000h
     714   07:C000  (08)                 PAGE 8
     715   08:8000  (200D)               INCBIN "gfx\CEMENTER1.SC5",#4007			; Cada página tiene 16K = 4000h 
     716   08:A00D  (09)                 PAGE 9
     717   09:8000                      GRAPHIC
     718   09:8000  (4000)               INCBIN "gfx\BTH.SR8",#7,#4000			; Cada página tiene 16K = 4000h
     719   09:C000  (0A)                 PAGE 10
     720   0A:8000  (4000)               INCBIN "gfx\BTH.SR8",#4007,#4000
     721   0A:C000                      
     722   0A:C000  (0B)                 PAGE 11
     723   0B:8000  (4000)               INCBIN "gfx\BTH.SR8",#8007,#4000
     724   0B:C000                      
     725   0B:C000  (0C)                 PAGE 12
     726   0C:8000  (1400)               INCBIN "gfx\BTH.SR8",#C007
     727   0C:9400                      
     728   0C:9400  (0D)                 PAGE 13
     729   0D:8000                      CEMENTER2
     730   0D:8000                      ;#Para el fondo borrar de BDA0 en adelante para quitar la parte de la energia
     731   0D:8000  (4000)               INCBIN "gfx\CEMENTER2.SC5",#7,#4000			; Cada página tiene 16K = 4000h
     732   0D:C000  (0E)                 PAGE 14
     733   0E:8000  (200E)               INCBIN "gfx\CEMENTER2.SC5",#4007			; Cada página tiene 16K = 4000h 
     734   0E:A00E  (0F)                 PAGE 15
     735   0F:C000                      ;---------------------------------------------------------
     736   0F:C000                      ; Variables
     737   0F:C000                      ;---------------------------------------------------------
     738   0F:C000                      	
     739   0F:C000  (C000)              	MAP #C000  ;Ram page 3
     740   0F:C000                      ;	MAP #E5FF  ;Ram page 3
     741   0F:C000                      ;NAME #1  ;a byte is reserved for this variable
     742   0F:C000                      ;ETC
     743   0F:C000                      ;
     744   0F:C000                      	include "include\BTH_RAM.asm"
       1.  0F:C000                      ;entities data
       2.  0F:C000  00 (27)             ENTITY_DATA: ds 27 ;  10 bytes, 3 entities
       3.  0F:C01B  (0F:C000)           ENTITY_PLAYER_POINTER:  EQU ENTITY_DATA
       4.  0F:C01B  (0F:C009)           ENTITY_ENEMY1_POINTER:  EQU ENTITY_DATA+9
       5.  0F:C01B  (0F:C012)           ENTITY_ENEMY2_POINTER:  EQU ENTITY_DATA+18
       6.  0F:C01B                      
       7.  0F:C01B  00 (1)              current_level: 	ds 1
       8.  0F:C01C                      
       9.  0F:C01C                      ; VDP variables
      10.  0F:C01C  00 (15)             tileDat: ds 15
      11.  0F:C02B  00 (15)             energyDat: ds 15
      12.  0F:C03A                      
      13.  0F:C03A                      
      14.  0F:C03A                      ; puzzle 1st stage
      15.  0F:C03A  00 (1)              stg1_puzzle_solved DS 1
      16.  0F:C03B                      
      17.  0F:C03B  00 (1)              SHOWING_SKULL_STG1_DIALOG  DS 1
      18.  0F:C03C  00 (1)              SHOWING_MIKE_DIALOG  DS 1
      19.  0F:C03D  00 (1)              SHOWING_JOHN_DIALOG  DS 1
      20.  0F:C03E  00 (1)              SHOWING_GUS_DIALOG  DS 1
      21.  0F:C03F  (0F:0008)           FONT_HEIGHT EQU 8
      22.  0F:C03F  (0F:0008)           FONT_WIDTH  EQU 8
      23.  0F:C03F  00 (2)              CHR_ACR DS 2
      24.  0F:C041  00 (1)              PTR_STR_DX DS 1
      25.  0F:C042  00 (1)              PTR_STR_DY DS 1
      26.  0F:C043                      
      27.  0F:C043  00 (1)              LAST_KEY_PRESSED DS 1
      28.  0F:C044  00 (1)              OLD_KEY_PRESSED DS 1
      29.  0F:C045  00                  JIFFY_TEMP DB $00
      30.  0F:C046  00                  CHAR_SPEED_X DB $00
      31.  0F:C047  00                  CHAR_SPEED_Y DB $00
      32.  0F:C048  00                  CHAR_SPEED_X_GHOST DB $00
      33.  0F:C049  00                  CHAR_SPEED_X_GHOST_STG2 DB $00
      34.  0F:C04A  00 (1)              CHAR_GHOST_DEAD DS 1
      35.  0F:C04B  00 (1)              CHAR_GHOST_DEAD_STG2 DS 1
      36.  0F:C04C  00 (1)              CHAR_MIN_STEP_STG2 DS 1
      37.  0F:C04D  00                  CHAR_DIR_GHOST1 DB $00      ; $00 - LEFT, $FF - RIGHT
      38.  0F:C04E  00                  CHAR_DIR_GHOST_STG2 DB $00      ; $00 - LEFT, $FF - RIGHT
      39.  0F:C04F  00                  CHAR_DIR_MAIN DB $00        ; $00 - UP, $01 - DOWN, $02 - LEFT, $03 - RIGHT
      40.  0F:C050  00 (1)              CHAR_NEW_DIR_MAIN DS 1
      41.  0F:C051  00 (1)              CHAR_MAIN_SHOOT DS 1        ; $01 - SHOOT LEFT $02 - SHOOT RIGHT $03 - SHOOT UP $04 - SHOOT DOWN
      42.  0F:C052  00 (1)              CHAR_MIN_STEP DS 1          ; número de ciclos antes de cambiar de patrón
      43.  0F:C053  00 (1)              CHAR_DISTANCE_SHOOT DS 1
      44.  0F:C054  00 (1)              CHAR_SPEED_SHOOT DS 1
      45.  0F:C055                      SPRITE_ATTRS:
      46.  0F:C055  00 (128)                DS 128
      47.  0F:C0D5                      SLOTBIOS:
      48.  0F:C0D5  00 (1)                  DS 1
      49.  0F:C0D6                      SLOTGAME:
      50.  0F:C0D6  00 (1)                  DS 1
      51.  0F:C0D7                      SLOTRAM:
      52.  0F:C0D7  00 (1)                  DS 1
      53.  0F:C0D8                      SPRITE_PTR_REPLACE:
      54.  0F:C0D8  00 (2)                  DS 2
      55.  0F:C0DA                      SPRITE_COLOR_REPLACE:
      56.  0F:C0DA  00 (2)                  DS 2
      57.  0F:C0DC                      SPRITE_COLOR_REPLACE2:
      58.  0F:C0DC  00 (2)                  DS 2
      59.  0F:C0DE                      MAPA:
      60.  0F:C0DE  00 (2)                  DS 2
      61.  0F:C0E0                      BITMAP:
      62.  0F:C0E0  00 (2)                  DS 2
      63.  0F:C0E2                      MAP_RAM:
      64.  0F:C0E2  00 (736)                DS 736
     745   0F:C3C2                          include "include\ayFX-RAM.ASM"
       1.  0F:C3C2                      		; --- ayFX REPLAYER v1.31 ---
       2.  0F:C3C2                      
       3.  0F:C3C2                      		; --- THIS FILE MUST BE COMPILED IN RAM ---
       4.  0F:C3C2                      
       5.  0F:C3C2  00 (1)              ayFX_MODE:	ds	1			; ayFX mode
       6.  0F:C3C3  00 (2)              ayFX_BANK:	ds	2			; Current ayFX Bank
       7.  0F:C3C5  00 (1)              ayFX_PRIORITY:	ds	1			; Current ayFX stream priotity
       8.  0F:C3C6  00 (2)              ayFX_POINTER:	ds	2			; Pointer to the current ayFX stream
       9.  0F:C3C8  00 (2)              ayFX_TONE:	ds	2			; Current tone of the ayFX stream
      10.  0F:C3CA  00 (1)              ayFX_NOISE:	ds	1			; Current noise of the ayFX stream
      11.  0F:C3CB  00 (1)              ayFX_VOLUME:	ds	1			; Current volume of the ayFX stream
      12.  0F:C3CC  00 (1)              ayFX_CHANNEL:	ds	1			; PSG channel to play the ayFX stream
      13.  0F:C3CD                      IF ( AYFXRELATIVE == 1 )
      14.  0F:C3CD                    ~ 	ayFX_VT:	sds	2			; ayFX relative volume table pointer
      15.  0F:C3CD                    ~ ENDIF
      16.  0F:C3CD                      
      17.  0F:C3CD                      		; --- UNCOMMENT THIS IF YOU DON'T USE THIS REPLAYER WITH PT3 REPLAYER ---
      18.  0F:C3CD                      ;AYREGS:		.ds	14			; Ram copy of PSG registers
      19.  0F:C3CD                      		; --- UNCOMMENT THIS IF YOU DON'T USE THIS REPLAYER WITH PT3 REPLAYER ---
     746   0F:C3CD  (0000)              	ENDMAP
     747   0F:C3CD                        

    LABELS
-------------------------------------------------
00:00004000 X PageSize
00:00006000 X _bank1
00:00007000   _bank2
00:00000069   CLRSPR
00:0000009F   CHGET
00:000000A2 X CHPUT
00:0000005F   CHGMOD
00:0000005C   LDIRVM
00:0000013E X RDVDP
00:00000047   WRTVDP
00:0000F3DB   CLIKSW
00:00000141   SNSMAT
00:0000FC9E X JIFFY
00:00000072 X INIGRP
00:00000138   RSLREG
00:00000024   ENASLT
00:00000009   ENTITY_SIZE
00:0000000F   PLAYER_COLLISION_OFFSET_X
00:00000010   PLAYER_COLLISION_OFFSET_Y
00:0000000E   PLAYER_WIDTH
00:00000010   PLAYER_HEIGHT
00:00000001   ENEMY_X
00:00000002   ENEMY_Y
00:00000003   ENTITY_ENERGY
00:00000004   ENEMY_COLLISION_OFFSET_X
00:00000005   ENEMY_COLLISION_OFFSET_Y
00:00000006   ENEMY_COLLISION_WIDTH
00:00000007   ENEMY_COLLISION_HEIGHT
00:00000008 X SPRITENUMBER_SPAT
00:00000009 X damage
00:00000071   STG2_TILE1_X
00:0000006E   STG2_TILE1_Y
00:00000080   STG2_TILE2_X
00:00000080   STG2_TILE3_X
00:0000008E   STG2_TILE3_Y
00:00004010   ANDY_MAX_ENERGY
00:00006100   FIRST_LINE_DLG_BOX
00:00006500   SEC_LINE_DLG_BOX
00:00006900   THIRD_LINE_DLG_BOX
00:00000001 X ROMMODE
00:00000007   KB_RIGHT
00:00000006   KB_DOWN
00:00000005   KB_UP
00:00000004   KB_LEFT
00:00000003   KB_DEL
00:00000000   KB_SPACE
00:00000001   MOV_SPEED
00:00000001   MOV_SPEED_GHOST
00:00000003   MOV_SPEED_SHOOT
00:00000030   MAX_DISTANCE_SHOOT
00:00000005   MAX_CHAR_STEPS
00:00000006 X MAX_CHAR_STEPS_STG2
00:0000FFE8   REG9SAV
00:00000098   PORT_0
00:00000099   PORT_1
00:0000009A X PORT_2
00:0000009B X PORT_3
00:0000F3E0   RG15AV
00:0000F3E9   FORCLR
00:000000C8   MIKE_TOMB_STG1_X
00:00000029   JOHN_TOMB_STG1_X
00:00000049   GUS_TOMB_STG1_X
00:00000078   GUS_TOMB_STG1_Y
00:00000069   SKULL_TOMB_STG1_X
00:0000005A   SKULL_TOMB_STG1_Y1
00:00000064   SKULL_TOMB_STG1_Y2
00:0000000C   SPR_SHOOT_P1
00:00000018   SPR_SHOOT_P1_PTRN
00:00000010   SPR_GHOST_STG1
00:0000001C   SPR_GHOST_STG1_PTRN_L1
00:00000024   SPR_GHOST_STG1_PTRN_L2
00:0000002C   SPR_GHOST_STG1_PTRN_R1
00:00000034   SPR_GHOST_STG1_PTRN_R2
00:00000018 X SPR_GHOST_STG2
00:0000003C X SPR_GHOST_STG2_PTRN_L1
00:00000044 X SPR_GHOST_STG2_PTRN_L2
00:0000004C X SPR_GHOST_STG2_PTRN_R1
00:00000054 X SPR_GHOST_STG2_PTRN_R2
00:00004016   mike_tomb_strings
00:0000401C   string01M
00:00004038   string02M
00:00004054   string03M
00:00004055   john_tomb_strings
00:0000405B   string01J
00:00004076   string02J
00:00004091   string03J
00:00004092   gus_tomb_strings
00:00004098   string01G
00:000040B5   string02G
00:000040D2   string03G
00:000040D3   stg1_skull_strings
00:000040D9   string01Sk
00:000040F4   string02Sk
00:0000410F   string03Sk
00:00004110   stg1_puzzle_solved_strings
00:00004116   string01P
00:0000412F   string02P
00:00004148   string03P
00:00004149   EnemyCollisionCheck
00:0000416F   EnemyCollisionCheck.check
00:00004176   EnemyCollisionCheck.other
00:00004178   check_spr_collision
00:00004185   check_spr_collision.no_collision
00:00004188   get_bloque_en_X_Y
00:000041A9   SetVdp_Write
00:000041C5   Set212Lines
00:000041D1   ClearVram_MSX2
00:000041DB   ClearVram_MSX2.loop_2
00:000041DD   ClearVram_MSX2.loop_1
00:000041DF   ClearVram_MSX2.loop
00:000041EC X opening_screen
00:0000420F   load_screen
00:00004231   _vdpsetvramwr
00:00004242 X _vdpsetvramwr14
00:0000424B   GETSLOT
00:00004262   EXIT
00:00004264   SETPAGES32K
00:00004269   NOPRET
00:00004277   SET_SCREEN5_MODE
00:0000429C   DUMP_SPR_ALL
00:000042C1   load_tiles_vdp
00:000042CB   DUMP_SPR_ATTS
00:000042E5 X DUMP_SPR_ATTS.DUMP_SPR_ATTS_END
00:000042E6   DUMP_SPR_P1
00:00004303   SetPalette
00:00004312   move_up
00:0000434C   move_down
00:00004387   move_right
00:00004398   move_right.KB_UPDOWN_PRESSED
00:000043E6   move_left
00:000043F7   move_left.KB_UPDOWN_PRESSED
00:00004445   CHECK_DIRECTION_MAIN
00:00004467   CHECK_DIRECTION_MAIN.SET_DIR_DOWN
00:0000447C   CHECK_DIRECTION_MAIN.SET_DIR_UP
00:00004491   CHECK_DIRECTION_MAIN.SET_DIR_LEFT
00:000044A6   CHECK_DIRECTION_MAIN.SET_DIR_RIGHT
00:000044BB   CHECK_DIRECTION_MAIN.FINISH
00:000044D2   UPDATE_MOVEMENT
00:000044FA   ANIMATE_P1
00:00004521   ANIMATE_P1.SET_SPR_1P_2
00:00004538   ANIMATE_P1.NO_CHAR_PATTERN_CHANGE
00:0000453E   NO_MOVEMENT
00:0000453F   MOVE_SHOOT
00:00004557   MOVE_SHOOT.MOVE_SHOOT_RIGHT
00:0000455F   MOVE_SHOOT.MOVE_SHOOT_UP
00:00004567   MOVE_SHOOT.MOVE_SHOOT_DOWN
00:0000456F   MOVE_SHOOT.MOVE_SHOOT_LEFT
00:00004574   MOVE_SHOOT.CHECK_SHOOT_DISTANCE
00:00004589   MOVE_SHOOT.ADD_SHOOT_Y
00:00004593   MOVE_SHOOT.ADD_DISTANCE
00:0000459E X MOVE_SHOOT.HIDE_SHOOT
00:000045AA   SHOOT_MAIN_CHAR
00:000045E4   SHOOT_MAIN_CHAR.SHOOT_RIGHT
00:000045F3   SHOOT_MAIN_CHAR.SHOOT_UP
00:00004606   SHOOT_MAIN_CHAR.SHOOT_DOWN
00:00004616   SHOOT_MAIN_CHAR.CONTINUE
00:0000461A   BOUNCE_ANDY
00:00000000   VDP_SX
00:00000002   VDP_SY
00:00000004   VDP_DX
00:00000006   VDP_DY
00:00000008   VDP_NX
00:0000000A X VDP_NY
00:0000000C X VDP_COLOR
00:0000000D X VDP_ARGUMENT
00:0000000E X VDP_COMMAND
00:000000E0 X CMD_YMMM
00:000000D0   CMD_HMMM
00:000000C0 X CMD_HMMV
00:00000098 X CMD_LMMM
00:000000B0 X CMD_LMMC
00:00000080 X CMD_LMMV
00:00000000 X VDP_IMP
00:00000001 X VDP_AND
00:00000002 X VDP_OR
00:00000003 X VDP_XOR
00:00000004 X VDP_NOT
00:00000008 X VDP_TIMP
00:00000009 X VDP_TAND
00:0000000A X VDP_TOR
00:0000000B X VDP_TXOR
00:0000000C X VDP_TNOT
00:00000010   ENERGY_WIDTH
00:00000020   TILE_WIDTH
00:00000010   TILE_HEIGHT
00:00000001   TILES_PAGE
00:00008000 X TILES_START_ADDR
00:00000002   BACK_BUFFER
00:00000000   FRONT_BUFFER
00:00000014   DIAGBOX_HEIGHT
00:000000FF   DIAGBOX_WIDTH
00:00004623   initVDPBuffers
00:00004650   print_strings_dialog_box
00:0000467D   print_string
00:0000467D   print_string.loop_str
00:00004698   print_string.first_line_font
00:000046B1   print_char
00:000046E8 X CLEAR_DIALOG_BOX_v1
00:0000471A X CLEAR_DIALOG_BOX_v2
00:0000474C   CLEAR_DIALOG_BOX
00:0000F3E0   VDP_01
00:0000FFE7   VDP_08
00:0000FFE8   VDP_09
00:00004753 X SETPAG
00:00004761 X SET_WR
00:0000477C X SET_RD
00:00004795   VDPCMD
00:000047A8   WAITCE
00:000047C0   ENASCR
00:000047C7   DISSCR
00:000047CC   DISSCR.OUT
00:000047D8 X ENASPR
00:000047DF X DISSPR
00:000047E4   DISSPR.OUT
00:000047F0 X LIN192
00:000047F7 X LIN212
00:000047FC   LIN212.OUT
00:00004808   VDP_Ready
00:00004821   DRAW_ANDY_ENERGY
00:0000482F   DRAW_ANDY_ENERGY.check_next_drop
00:0000484F   DRAW_ANDY_ENERGY.draw_half_drop
00:00004861   DRAW_ANDY_ENERGY.draw_empty_drops
00:00004874   DRAW_ANDY_ENERGY.loop
00:0000488C   tileDatROM
00:0000489B   energyDatROM
00:000048AA   DiagBoxToBackBufROM
00:000048B9   DiagBoxToFrontkBufROM
00:000048C8 X DiagBoxClearROM
00:00000000   CHNPRM_PsInOr
00:00000001   CHNPRM_PsInSm
00:00000002   CHNPRM_CrAmSl
00:00000003   CHNPRM_CrNsSl
00:00000004   CHNPRM_CrEnSl
00:00000005   CHNPRM_TSlCnt
00:00000006   CHNPRM_CrTnSl
00:00000008   CHNPRM_TnAcc
00:0000000A   CHNPRM_COnOff
00:0000000B   CHNPRM_OnOffD
00:0000000C   CHNPRM_OffOnD
00:0000000D   CHNPRM_OrnPtr
00:0000000F   CHNPRM_SamPtr
00:00000011   CHNPRM_NNtSkp
00:00000012   CHNPRM_Note
00:00000013   CHNPRM_SlToNt
00:00000014   CHNPRM_Env_En
00:00000015   CHNPRM_Flags
00:00000016   CHNPRM_TnSlDl
00:00000017   CHNPRM_TSlStp
00:00000019   CHNPRM_TnDelt
00:0000001B   CHNPRM_NtSkCn
00:00000017   CHNPRM_Volume
00:0000001D X CHNPRM_Size
00:00000000   AR_TonA
00:00000002   AR_TonB
00:00000004   AR_TonC
00:00000006   AR_Noise
00:00000007   AR_Mixer
00:00000008   AR_AmplA
00:00000009   AR_AmplB
00:0000000A   AR_AmplC
00:0000000B   AR_Env
00:0000000D   AR_EnvTp
00:000048D7   CHECKLP
00:000048E8 X PT3_MUTE
00:000048F4   PT3_INIT
00:00004933   PT3_INIT.TP_0
00:0000493F   PT3_INIT.TP_1
00:00004946   PT3_INIT.TP_2
00:000049B4   PT3_INIT.L1
00:000049C1   PT3_INIT.L2
00:000049C5 X PT3_INIT.L3
00:000049EC   PT3_INIT.CORR_1
00:000049FA   PT3_INIT.CORR_2
00:00004A01   PT3_INIT.TC_EXIT
00:00004A0C   PT3_INIT.INITV1
00:00004A14   PT3_INIT.INITV2
00:00004A28   PT3_INIT.INITV3
00:00004A2C   PD_OrSm
00:00004A36   PD_SAM
00:00004A37   PD_SAM_
00:00004A4D   PD_VOL
00:00004A56   PD_EOff
00:00004A5E   PD_SorE
00:00004A68   PD_ENV
00:00004A6D   PD_ORN
00:00004A72   PD_ESAM
00:00004A7F   PTDECOD
00:00004A8E   PD_LOOP
00:00004A91   PD_LP2
00:00004ABE   PD_NOIS
00:00004AC3   PD_REL
00:00004AC9   PD_NOTE
00:00004AD1   PD_RES
00:00004AE3   PD_FIN
00:00004AEA   C_PORTM
00:00004B35   C_PORTM.NOSIG
00:00004B3F   SET_STP
00:00004B4B   C_GLISS
00:00004B5E   C_SMPOS
00:00004B64   C_ORPOS
00:00004B6A   C_VIBRT
00:00004B82   C_ENGLS
00:00004B94   C_DELAY
00:00004B9A   SETENV
00:00004BB5   C_NOP
00:00004BB6   SETORN
00:00004BCF   SPCCOMS
00:00004BEF   CHREGS
00:00004C12   CHREGS.CH_ORPS
00:00004C1D   CHREGS.CH_NTP
00:00004C23   CHREGS.CH_NOK
00:00004C3E   CHREGS.CH_SMPS
00:00004C54   CHREGS.CH_NOAC
00:00004C9B   CHREGS.CH_STPP
00:00004CB0   CHREGS.CH_AMP
00:00004CC2   CHREGS.CH_AMIN
00:00004CC7   CHREGS.CH_SVAM
00:00004CCA   CHREGS.CH_NOAM
00:00004CD3   CHREGS.CH_APOS
00:00004CD9   CHREGS.CH_VOL
00:00004CE4 X CHREGS.CH_ENV
00:00004CEB   CHREGS.CH_NOEN
00:00004D05   CHREGS.NO_ENAC
00:00004D0C   CHREGS.NO_ENSL
00:00004D1A   CHREGS.CH_MIX
00:00004D1E   CHREGS.CH_EXIT
00:00004D3D   CHREGS.CH_ONDL
00:00004D41   PT3_PLAY
00:00004D75   PT3_PLAY.PLNLP
00:00004D9C   PT3_PLAY.PL1A
00:00004DA7   PT3_PLAY.PL1B
00:00004DBC   PT3_PLAY.PL1C
00:00004DD1   PT3_PLAY.PL1D
00:00004DD7   PT3_PLAY.PL2
00:00004E39   PT3_ROUT
00:00004E3A   ROUT_A0
00:00004E46   ROUT_A0.LOUT
00:00004E5A   NT_DATA
00:00004E6A   T_
00:00004E6A   TCOLD_0
00:00004E76   TCNEW_1
00:00004E76   TCOLD_1
00:00004E78   TCOLD_2
00:00004E8A   TCNEW_3
00:00004E8B   TCOLD_3
00:00004E94   TCNEW_0
00:00004E9F   TCNEW_2
00:00004EAA   EMPTYSAMORN
00:00004EAE   T_PACK
00:0000F000   PT3_SETUP
00:0000F000   PT3_MODADDR
00:0000F002   PT3_CrPsPtr
00:0000F004   PT3_SAMPTRS
00:0000F006   PT3_OrnPtrs
00:0000F008   PT3_PDSP
00:0000F00A   PT3_CSP
00:0000F00C   PT3_PSP
00:0000F00E   PT3_PrNote
00:0000F00F   PT3_PrSlide
00:0000F011   PT3_AdInPtA
00:0000F013   PT3_AdInPtB
00:0000F015   PT3_AdInPtC
00:0000F017   PT3_LPosPtr
00:0000F019   PT3_PatsPtr
00:0000F01B   PT3_Delay
00:0000F01C   PT3_AddToEn
00:0000F01D   PT3_Env_Del
00:0000F01E   PT3_ESldAdd
00:0000F020   PT3_NTL3
00:0000F022   VARS
00:0000F022   ChanA
00:0000F03F   ChanB
00:0000F05C   ChanC
00:0000F079   DelyCnt
00:0000F07A   CurESld
00:0000F07C   CurEDel
00:0000F07D   Ns_Base_AddToNs
00:0000F07D   Ns_Base
00:0000F07E   AddToNs
00:0000F07F   NT_
00:0000F13F   AYREGS
00:0000F13F   VT_
00:0000F14D   EnvBase
00:0000F14F   VAR0END
00:0000F14F   T1_
00:0000F14F   T_NEW_1
00:0000F14F   T_OLD_1
00:0000F167   T_OLD_2
00:0000F17F   T_NEW_3
00:0000F17F   T_OLD_3
00:0000F181   T_OLD_0
00:0000F181   T_NEW_0
00:0000F199   T_NEW_2
00:00000000 X AYFXRELATIVE
00:00004EE3   ayFX_SETUP
00:00004EEE   ayFX_END
00:00004EF4   ayFX_INIT
00:00004F05   ayFX_INIT.CHECK_PRI
00:00004F26   ayFX_INIT.INIT_END
00:00004F2A   ayFX_PLAY
00:00004F3E   ayFX_PLAY.TAKECB
00:00004F4F   ayFX_PLAY.CHECK_NN
00:00004F5C   ayFX_PLAY.SETPOINTER
00:00004F70   ayFX_PLAY.SETMASKS
00:00004F7E X ayFX_PLAY.CHK1
00:00004F80 X ayFX_PLAY.LAY_C
00:00004F8D   ayFX_PLAY.CHK2
00:00004F92 X ayFX_PLAY.PLAY_B
00:00004F9F   ayFX_PLAY.CHK3
00:00004FA2 X ayFX_PLAY.PLAY_A
00:00004FAF   ayFX_PLAY.SETMIXER
00:00004FBF   init_playerDAT
00:00004FC8   enemy1_stg1DAT
00:00004FD1   START
00:00005016   INIT_CHARS_VARS
00:000050A5   STAGE1
00:00005111   STAGE1.nobackfromstg2
00:0000511A   MAIN_LOOP
00:00005125 X MAIN_LOOP.check_tombs
00:00005182   MAIN_LOOP.puzzle_wrong_order
00:000051A8   MAIN_LOOP.check_john_tomb
00:000051F0   MAIN_LOOP.check_gus_tomb
00:00005242   MAIN_LOOP.check_skull_hint
00:00005266   MAIN_LOOP.check_mike_dialog_box
00:00005276   MAIN_LOOP.check_gus_dialog
00:00005286   MAIN_LOOP.check_john_dialog
00:00005296   MAIN_LOOP.check_skull_dialog
00:000052A4   MAIN_LOOP.animate_ghost
00:000052C6   MAIN_LOOP.CHANGE_DIR_RIGHT
00:000052D3   MAIN_LOOP.CHANGE_DIR_LEFT
00:000052DC   MAIN_LOOP.check_pattern
00:000052F7   MAIN_LOOP.change_pattern_L
00:00005302   MAIN_LOOP.check_pattern_RIGHT
00:00005315   MAIN_LOOP.change_pattern_R
00:0000531D   MAIN_LOOP.continue
00:00005348   MAIN_LOOP.move_shoot
00:0000534B X MAIN_LOOP.CHECK_GHOST
00:00005367 X MAIN_LOOP.KILL_GHOST
00:00005374   MAIN_LOOP.check_KB
00:0000539E X no_arrows
00:000053A6   STAGE2
00:000053E7   MAIN_LOOP2
00:0000541B   MAIN_LOOP2.GHOST_DEAD
00:0000541E   MAIN_LOOP2.no_screen_change
00:00005452   MAIN_LOOP2.check_next_tile
00:0000547C   MAIN_LOOP2.check_tile3
00:000054AE   MAIN_LOOP2.continue
00:000054D9   game_over
00:000054DF   AFX
00:000056D5   SONG
00:000065BC   SPRITE_P1_UP
00:0000667C   SPRITE_P1_DOWN
00:0000673C   SPRITE_P1_LEFT
00:000067FC   SPRITE_P1_RIGHT
00:000068BC   SPRITE_PATTERN
00:00006B9C   SPRITE_COLOR_TABLE
00:00006C1C   SPRITE_COLOR_P1_UP
00:00006C7C   SPRITE_COLOR_P1_DOWN
00:00006CDC   SPRITE_COLOR_P1_RIGHT
00:00006D3C   stg1_gate
00:00006D42   stg1_gate_blocked
00:00006D48   mapa1
00:00007028   mapa2
00:00007348 X mapa0
00:000076A8   SPRITE_COLOR_P1_LEFT
00:00007708   BLANK_DATA
00:00007788   PaletteData
00:000077A8   TILES1
06:00008000   FONT
07:00008000   CEMENTER1
09:00008000   GRAPHIC
0D:00008000   CEMENTER2
0F:0000C000   ENTITY_DATA
0F:0000C000   ENTITY_PLAYER_POINTER
0F:0000C009   ENTITY_ENEMY1_POINTER
0F:0000C012 X ENTITY_ENEMY2_POINTER
0F:0000C01B   current_level
0F:0000C01C   tileDat
0F:0000C02B   energyDat
0F:0000C03A   stg1_puzzle_solved
0F:0000C03B   SHOWING_SKULL_STG1_DIALOG
0F:0000C03C   SHOWING_MIKE_DIALOG
0F:0000C03D   SHOWING_JOHN_DIALOG
0F:0000C03E   SHOWING_GUS_DIALOG
0F:00000008 X FONT_HEIGHT
0F:00000008 X FONT_WIDTH
0F:0000C03F   CHR_ACR
0F:0000C041 X PTR_STR_DX
0F:0000C042 X PTR_STR_DY
0F:0000C043 X LAST_KEY_PRESSED
0F:0000C044   OLD_KEY_PRESSED
0F:0000C045   JIFFY_TEMP
0F:0000C046   CHAR_SPEED_X
0F:0000C047   CHAR_SPEED_Y
0F:0000C048   CHAR_SPEED_X_GHOST
0F:0000C049 X CHAR_SPEED_X_GHOST_STG2
0F:0000C04A   CHAR_GHOST_DEAD
0F:0000C04B X CHAR_GHOST_DEAD_STG2
0F:0000C04C X CHAR_MIN_STEP_STG2
0F:0000C04D   CHAR_DIR_GHOST1
0F:0000C04E X CHAR_DIR_GHOST_STG2
0F:0000C04F   CHAR_DIR_MAIN
0F:0000C050   CHAR_NEW_DIR_MAIN
0F:0000C051   CHAR_MAIN_SHOOT
0F:0000C052   CHAR_MIN_STEP
0F:0000C053   CHAR_DISTANCE_SHOOT
0F:0000C054   CHAR_SPEED_SHOOT
0F:0000C055   SPRITE_ATTRS
0F:0000C0D5 X SLOTBIOS
0F:0000C0D6 X SLOTGAME
0F:0000C0D7 X SLOTRAM
0F:0000C0D8   SPRITE_PTR_REPLACE
0F:0000C0DA   SPRITE_COLOR_REPLACE
0F:0000C0DC   SPRITE_COLOR_REPLACE2
0F:0000C0DE   MAPA
0F:0000C0E0   BITMAP
0F:0000C0E2   MAP_RAM
0F:0000C3C2   ayFX_MODE
0F:0000C3C3   ayFX_BANK
0F:0000C3C5   ayFX_PRIORITY
0F:0000C3C6   ayFX_POINTER
0F:0000C3C8   ayFX_TONE
0F:0000C3CA   ayFX_NOISE
0F:0000C3CB   ayFX_VOLUME
0F:0000C3CC   ayFX_CHANNEL


 Output: .\BTH.out
-------------------------------------------------

 Page: 00
  Org: 00004000  Size: *  Used: 00000000

    No output

 Output: BTH.rom
-------------------------------------------------

 Page: 00
  Org: 00004000  Size: 00004000  Used: 00003FA7

   Address   Length Align   Label
   00004000   16289         ANDY_MAX_ENERGY
   00007FA1       6         
   00007FA7      89       <empty>

 Page: 01
  Org: 00008000  Size: 00004000  Used: 00000000

   00008000   16384       <empty>

 Page: 02
  Org: 00008000  Size: 00004000  Used: 00000000

   00008000   16384       <empty>

 Page: 03
  Org: 00008000  Size: 00004000  Used: 00000000

   00008000   16384       <empty>

 Page: 04
  Org: 00008000  Size: 00004000  Used: 00000000

   00008000   16384       <empty>

 Page: 05
  Org: 00008000  Size: 00004000  Used: 00000000

   00008000   16384       <empty>

 Page: 06
  Org: 00008000  Size: 00004000  Used: 000007F7

   Address   Length Align   Label
   00008000    2039         FONT
   000087F7   14345       <empty>

 Page: 07
  Org: 00008000  Size: 00004000  Used: 00004000

   Address   Length Align   Label
   00008000   16384         CEMENTER1

 Page: 08
  Org: 00008000  Size: 00004000  Used: 0000200D

   Address   Length Align   Label
   00008000    8205         
   0000A00D    8179       <empty>

 Page: 09
  Org: 00008000  Size: 00004000  Used: 00004000

   Address   Length Align   Label
   00008000   16384         GRAPHIC

 Page: 0A
  Org: 00008000  Size: 00004000  Used: 00004000

   Address   Length Align   Label
   00008000   16384         

 Page: 0B
  Org: 00008000  Size: 00004000  Used: 00004000

   Address   Length Align   Label
   00008000   16384         

 Page: 0C
  Org: 00008000  Size: 00004000  Used: 00001400

   Address   Length Align   Label
   00008000    5120         
   00009400   11264       <empty>

 Page: 0D
  Org: 00008000  Size: 00004000  Used: 00004000

   Address   Length Align   Label
   00008000   16384         CEMENTER2

 Page: 0E
  Org: 00008000  Size: 00004000  Used: 0000200E

   Address   Length Align   Label
   00008000    8206         
   0000A00E    8178       <empty>

 Page: 0F
  Org: 0000C000  Size: 00004000  Used: 000003CD

   Address   Length Align   Label
   0000C000     973         ENTITY_DATA
   0000C3CD   15411       <empty>
